((dp0
S'arm_dbg_args'
p1
S'-via:"c:\\Users\\conor\\Documents\\WorldGrid\\Github\\build_aliceengine2_vc14\\AliceEngine2_vc14_arm_debug.via" -qemu'
p2
sS'game-icf'
p3
S''
p4
sS'dist'
p5
NsS'csproj'
p6
g4
sS'module_path_append'
p7
NsS'tizen_x86_dbg_exe'
p8
S'c:\\marmalade\\8.1\\s3e\\makefile_builder\\tool_launcher.exe'
p9
sS'global_path'
p10
S'c:\\users\\conor\\documents\\worldgrid'
p11
sS'osx-version'
p12
g4
sS'system_path'
p13
S'c:\\marmalade\\8.1\\s3e\\makefile_builder'
p14
sS'android_x86_dbg_args'
p15
S'../../tools/DeployTool/DeployTool.exe --dir "c:\\Users\\conor\\Documents\\WorldGrid\\Github\\build_aliceengine2_vc14"'
p16
sS'aarch64-arch-mod'
p17
g4
sS'no-emit'
p18
NsS'androidnativedebug'
p19
NsS'arm-float-abi'
p20
g4
sS'arm_rel_rtsm_args'
p21
S'-via:"c:\\Users\\conor\\Documents\\WorldGrid\\Github\\build_aliceengine2_vc14\\AliceEngine2_vc14_arm_release.via" -qemu'
p22
sS'amd64'
p23
NsS'line-width'
p24
I80
sS'gcc_dbg_args'
p25
S'-via:"c:\\Users\\conor\\Documents\\WorldGrid\\Github\\build_aliceengine2_vc14\\AliceEngine2_vc14_gcc_debug.via" -qemu'
p26
sS'sim-release-loader'
p27
NsS'android-x86'
p28
NsS'x86_dbg_exe'
p29
S'c:/marmalade/8.1/s3e\\win32\\s3e_simulator_debug.exe'
p30
sS'jflags'
p31
NsS'nacl_x86_64_rel_args'
p32
g16
sS'release'
p33
NsS'no-make'
p34
NsS'xcode-x86-build-settings'
p35
g4
sS'optimise-size'
p36
NsS'fat'
p37
NsS'dump_defines'
p38
NsS'output-name-debug'
p39
g4
sS'arm-fpu'
p40
g4
sS'proj_name'
p41
S'AliceEngine2_vc14'
p42
sS'enable-stdinc'
p43
NsS'compiler'
p44
g4
sS'execute'
p45
I01
sS'compile-static'
p46
NsS'nacl_x86_64_rel_exe'
p47
g9
sS'msvc-project'
p48
NsS'buildenv'
p49
S'VC14'
p50
sS'quick'
p51
NsS'module_path'
p52
NsS'mkf_default'
p53
S's3e-default.mkf'
p54
sS'use-release-std-libs'
p55
NsS'using_perforce'
p56
I00
sS'tizen-x86'
p57
NsS'mips-s3e'
p58
NsS's3e-api-lib-name'
p59
S's3e_api_iwgl'
p60
sS'ios-no-pic'
p61
NsS'shared-arm-lib'
p62
NsS'androidnative'
p63
NsS'arm-cpu'
p64
g4
sS'compile-thumb'
p65
NsS'no-ide'
p66
I01
sS'msvc-version'
p67
S'6.0'
p68
sS'arm'
p69
NsS'nacl_x86_64_dbg_exe'
p70
g9
sS'builddir'
p71
g4
sS'compile-debug-as-release'
p72
I0
sS'arm-arch'
p73
g4
sS'brief'
p74
NsS'dll'
p75
NsS'buildenv-toolset'
p76
g4
sS'version'
p77
NsS'aarch64-arch'
p78
g4
sS'ccache'
p79
I0
sS'offline'
p80
NsS'ios-version'
p81
g4
sS'hub_data'
p82
g4
sS'fake_vc_call'
p83
NsS'jobs'
p84
I0
sS'mkf_in_loc'
p85
(lp86
(S'c:\\marmalade\\8.1\\s3e\\s3e-default.mkf'
p87
S'c:/Users/conor/Documents/WorldGrid/Github/AliceEngine2.mkb'
p88
I1
tp89
a(S'c:\\marmalade\\8.1\\extensions\\s3eamazonads\\s3eamazonads.mkf'
p90
S'c:/marmalade/8.1/s3e/s3e-default.mkf'
p91
I18
tp92
a(S'c:\\marmalade\\8.1\\modules\\iwutil\\iwutil.mkf'
p93
S'c:/marmalade/8.1/extensions/s3eamazonads/s3eamazonads.mkf'
p94
I36
tp95
a(S'c:\\marmalade\\8.1\\modules\\third_party\\libjpeg\\libjpeg.mkf'
p96
S'c:/marmalade/8.1/modules/iwutil/iwutil.mkf'
p97
I72
tp98
a(S'c:\\marmalade\\8.1\\modules\\third_party\\libpng\\libpng.mkf'
p99
g97
I73
tp100
a(S'c:\\marmalade\\8.1\\modules\\third_party\\zlib\\zlib.mkf'
p101
S'c:/marmalade/8.1/modules/third_party/libpng/libpng.mkf'
p102
I1
tp103
a(S'c:\\marmalade\\8.1\\platform_libs\\android\\amazon-ads-android-sdk\\amazon-ads-android-sdk.mkf'
p104
g94
I40
tp105
a(S'c:\\marmalade\\8.1\\platform_libs\\iphone\\amazon-ads-ios-sdk\\amazon-ads-ios-sdk.mkf'
p106
g94
I41
tp107
a(S'c:\\marmalade\\8.1\\modules\\iw2dscenegraphcore\\iw2dscenegraphcore.mkf'
p108
g88
I96
tp109
a(S'c:\\marmalade\\8.1\\modules\\iw2dscenegraph\\iw2dscenegraph.mkf'
p110
g88
I97
tp111
a(S'c:\\marmalade\\8.1\\modules\\iw2d\\iw2d.mkf'
p112
S'c:/marmalade/8.1/modules/iw2dscenegraph/iw2dscenegraph.mkf'
p113
I18
tp114
a(S'c:\\marmalade\\8.1\\modules\\iwgx\\iwgx.mkf'
p115
S'c:/marmalade/8.1/modules/iw2d/iw2d.mkf'
p116
I26
tp117
a(S'c:\\marmalade\\8.1\\modules\\iwgl\\iwgl.mkf'
p118
S'c:/marmalade/8.1/modules/iwgx/iwgx.mkf'
p119
I72
tp120
a(S'c:\\marmalade\\8.1\\modules\\iwgeom\\iwgeom.mkf'
p121
g119
I73
tp122
a(S'c:\\marmalade\\8.1\\modules\\iwresmanager\\iwresmanager.mkf'
p123
g119
I74
tp124
a(S'c:\\marmalade\\8.1\\extensions\\pvrtextool\\pvrtextool.mkf'
p125
g119
I75
tp126
a(S'c:\\marmalade\\8.1\\modules\\iwgxfont\\iwgxfont.mkf'
p127
g116
I27
tp128
a(S'c:\\marmalade\\8.1\\modules\\third_party\\tiniconv\\tiniconv.mkf'
p129
S'c:/marmalade/8.1/modules/iwgxfont/iwgxfont.mkf'
p130
I50
tp131
a(S'c:\\marmalade\\8.1\\modules\\iwtween\\iwtween.mkf'
p132
g88
I100
tp133
asS'linkflags'
p134
NsS'gcc_aarch64_dbg_args'
p135
g16
sS'nacl_x86_64_dbg_args'
p136
g16
sS'debug'
p137
I01
sS'xcode-build-order'
p138
g4
sS'gcc_aarch64_rel_rtsm_args'
p139
S'-via:"c:\\Users\\conor\\Documents\\WorldGrid\\Github\\build_aliceengine2_vc14\\AliceEngine2_vc14_gcc_aarch64_release.via" -qemu'
p140
sS'gcc_rel_rtsm_args'
p141
S'-via:"c:\\Users\\conor\\Documents\\WorldGrid\\Github\\build_aliceengine2_vc14\\AliceEngine2_vc14_gcc_release.via" -qemu'
p142
sS'done_defaults'
p143
I1
sS'path'
p144
(lp145
S'c:/marmalade/8.1/tools/gcc/x86_64/nacl_windows/toolchain/win_x86_glibc/bin'
p146
asS's3e-data-dir'
p147
S'c:/Users/conor/Documents/WorldGrid/Github\\data'
p148
sS'enable-exceptions'
p149
NsS'osx-dll'
p150
NsS'extension'
p151
g4
sS'no-vc6'
p152
NsS'aarch64'
p153
NsS'win32-console'
p154
NsS'dist-format'
p155
g4
sS's3e-force-arch'
p156
NsS'incredibuildpath'
p157
g4
sS'use-shared-std-libs'
p158
NsS'gcc-version'
p159
g4
sS'x86_dbg_args'
p160
S'-via:"c:\\Users\\conor\\Documents\\WorldGrid\\Github\\build_aliceengine2_vc14\\AliceEngine2_vc14_debug.via"'
p161
sS'nacl'
p162
NsS'tizen_x86_dbg_args'
p163
g16
sS'arm-debugger'
p164
g4
sS'use_temp_extension'
p165
NsS'verbose'
p166
I0
sS'log'
p167
NsS'no-strip'
p168
NsS'rebuild'
p169
NsS'mips_dbg_args'
p170
g16
sS'win32-simulator-dll'
p171
NsS'strict'
p172
NsS'xcode-aarch64-build-settings'
p173
g4
sS'enable-global-path'
p174
NsS'gcc_aarch64_rel_args'
p175
g16
sS'cflags'
p176
NsS'dist-dir'
p177
g4
sS'xcode-arm-build-settings'
p178
g4
sS'disable-runtime-checks'
p179
NsS'csprojSDKRefs'
p180
g4
sS'tizen_x86_rel_exe'
p181
g9
sS'builddirroot'
p182
g4
sS'distcc'
p183
NsS'external-compiler'
p184
NsS'stripflags'
p185
NsS'retry-build'
p186
S'0'
p187
sS'preinclude'
p188
NsS'using_sdk'
p189
I01
sS'nologo'
p190
NsS'warn-level'
p191
I2
sS'mips_dbg_exe'
p192
g9
sS'mkb_in'
p193
S'c:/Users/conor/Documents/WorldGrid/Github/AliceEngine2.mkb'
p194
sS'no-objc-arc'
p195
NsS'app-icf'
p196
NsS'arm_dbg_exe'
p197
S'c:/marmalade/8.1/s3e\\bin\\armdebug.exe'
p198
sS'mdev-first'
p199
NsS'csprojDLLRef'
p200
NsS'tizen_x86_rel_args'
p201
g16
sS'android_x86_dbg_exe'
p202
g9
sS'naclx86_64'
p203
NsS'test-config'
p204
g4
sS'list-targets'
p205
NsS'arm_rel_exe'
p206
g9
sS'arm_rel_args'
p207
g16
sS'makedeps'
p208
NsS'android_x86_rel_exe'
p209
g9
sS'default-buildenv'
p210
S'VC14'
p211
sS'x86_rel_exe'
p212
S'c:/marmalade/8.1/s3e\\win32\\s3e_simulator_release.exe'
p213
sS'preprocess-java'
p214
NsS'mips_rel_args'
p215
g16
sS'test-assets'
p216
g4
sS'lib'
p217
NsS'non-interactive'
p218
NsS'global_argv'
p219
(lp220
S'C:\\Marmalade\\8.1\\s3e\\makefile_builder\\mkb.py'
p221
aS'C:/Users/conor/Documents/WorldGrid/Github/AliceEngine2.mkb'
p222
aS'--buildenv=VC14'
p223
aS'--debug'
p224
aS'--x86'
p225
aS'--no-ide'
p226
aS'--execute'
p227
asS'make'
p228
NsS'optimise-speed'
p229
NsS'internal'
p230
NsS'rvct-version'
p231
g4
sS'defines'
p232
NsS'deploy-only'
p233
NsS'x86'
p234
I01
sS'deploy'
p235
g4
sS'objc-arc'
p236
NsS'x86_run_exe'
p237
S'c:/marmalade/8.1/s3e\\win32\\s3e_simulator_debug.exe'
p238
sS'cxxflags'
p239
NsS'x86_rel_args'
p240
S'-via:"c:\\Users\\conor\\Documents\\WorldGrid\\Github\\build_aliceengine2_vc14\\AliceEngine2_vc14_release.via"'
p241
sS'gcc_rel_args'
p242
g16
sS'mips'
p243
NsS'xcode-build-settings'
p244
g4
sS'csprojPostBuildActions'
p245
NsS'incredibuild'
p246
NsS'strict-compile'
p247
NsS'use-auto-subdirs'
p248
NsS'mips_rel_exe'
p249
g9
sS'android_x86_rel_args'
p250
g16
sS'no-distcc'
p251
NsS'deployargs'
p252
NsS'iosnativedebug'
p253
NsS'use_prebuilt'
p254
NsS'win-target-platform'
p255
g4
sS'mkf_in'
p256
(lp257
g87
ag90
ag93
ag96
ag99
ag101
ag104
ag106
ag108
ag110
ag112
ag115
ag118
ag121
ag123
ag125
ag127
ag129
ag132
asS'strict-mkb'
p258
NsS'executeargs'
p259
NsS'clean'
p260
NsS'no-asm'
p261
NsS'output-name'
p262
g4
sS'no-modules'
p263
NsS'find_define'
p264
g4
s(dp265
S'c:\\marmalade\\8.1\\s3e\\makefile_builder\\plugins\\ws81_ws81.pyc'
p266
F1450408072.0
sS'c:\\marmalade\\8.1\\s3e\\makefile_builder\\plugins\\XcodeEmitter.py'
p267
F1450402402.0
sS'c:\\marmalade\\8.1\\s3e\\makefile_builder\\plugins\\s3e_qmake.pyc'
p268
F1453895954.0360334
sS'c:\\marmalade\\8.1\\s3e\\makefile_builder\\templates\\wp81_ext_csproj.pyc'
p269
F1450408296.0
sS'c:\\marmalade\\8.1\\s3e\\makefile_builder\\plugins\\vc7_utils.pyc'
p270
F1450408014.0
sS'c:\\marmalade\\8.1\\s3e\\makefile_builder\\templates\\win10_csproj_user.pyc'
p271
F1450408008.0
sS'c:\\marmalade\\8.1\\s3e\\makefile_builder\\templates\\ws81_ext_sln.pyc'
p272
F1450407960.0
sS'c:\\marmalade\\8.1\\s3e\\makefile_builder\\templates\\xcode.py'
p273
F1450402404.0
sS'c:\\marmalade\\8.1\\s3e\\makefile_builder\\plugins\\MakeEmitter.pyc'
p274
F1450408024.0
sS'c:\\marmalade\\8.1\\s3e\\makefile_builder\\templates\\win8_vcxproj.pyc'
p275
F1450408352.0
sS'c:\\marmalade\\8.1\\s3e\\makefile_builder\\docs\\mkb.defines.txt'
p276
F1450402402.0
sS'c:\\marmalade\\8.1\\s3e\\makefile_builder\\templates\\make.py'
p277
F1450402402.0
sS'c:\\marmalade\\8.1\\s3e\\makefile_builder\\plugins\\vc6_utils.pyc'
p278
F1450408288.0
sS'c:\\marmalade\\8.1\\s3e\\makefile_builder\\templates\\vc7_suo.pyc'
p279
F1450408250.0
sS'c:\\marmalade\\8.1\\s3e\\makefile_builder\\tool_launcher.exe'
p280
F1450403666.0
sS'c:\\marmalade\\8.1\\s3e\\makefile_builder\\templates\\MainWindow.xib'
p281
F1450402402.0
sS'c:\\marmalade\\8.1\\s3e\\makefile_builder\\templates\\wp8_vcxproj.pyc'
p282
F1450408030.0
sS'c:\\marmalade\\8.1\\s3e\\makefile_builder\\templates\\xcode4_DeployTool.xcscheme'
p283
F1450402404.0
sS'c:\\marmalade\\8.1\\s3e\\makefile_builder\\mkb_globals.pyc'
p284
F1450408242.0
sS'c:\\marmalade\\8.1\\s3e\\makefile_builder\\templates\\win32_dsw.pyc'
p285
F1450407836.0
sS'c:\\marmalade\\8.1\\s3e\\makefile_builder\\templates\\vc14_androidnative_ext_sln.pyc'
p286
F1450408102.0
sS'c:\\marmalade\\8.1\\s3e\\makefile_builder\\templates\\wp8_ext_csproj.pyc'
p287
F1450408342.0
sS'c:\\marmalade\\8.1\\s3e\\makefile_builder\\templates\\win8_csproj.pyc'
p288
F1450408372.0
sS'c:\\marmalade\\8.1\\s3e\\makefile_builder\\templates\\win10_vcxproj.pyc'
p289
F1450408008.0
sS'c:\\marmalade\\8.1\\s3e\\makefile_builder\\templates\\rvct_linker_script'
p290
F1450402402.0
sS'c:\\marmalade\\8.1\\s3e\\makefile_builder\\templates\\win8_sln.pyc'
p291
F1450407988.0
sS'c:\\marmalade\\8.1\\s3e\\makefile_builder\\templates\\vc10_user.pyc'
p292
F1450408246.0
sS'c:\\marmalade\\8.1\\s3e\\makefile_builder\\plugins\\s3e_ws8.pyc'
p293
F1450408298.0
sS'c:\\marmalade\\8.1\\s3e\\makefile_builder\\templates\\ws81_csproj_user.pyc'
p294
F1450408304.0
sS'c:\\marmalade\\8.1\\s3e\\makefile_builder\\plugins\\s3e_ws81.pyc'
p295
F1450408306.0
sS'c:\\marmalade\\8.1\\s3e\\makefile_builder\\plugins\\wp8_wp8.pyc'
p296
F1450408144.0
sS'c:\\marmalade\\8.1\\s3e\\makefile_builder\\plugins\\s3e_web.pyc'
p297
F1450408066.0
sS'c:\\marmalade\\8.1\\s3e\\makefile_builder\\templates\\win8_csproj_user.pyc'
p298
F1450407934.0
sS'c:\\marmalade\\8.1\\s3e\\makefile_builder\\templates\\qmake.py'
p299
F1450402402.0
sS'c:\\marmalade\\8.1\\s3e\\makefile_builder\\plugins\\Emitter.pyc'
p300
F1450408058.0
sS'c:\\marmalade\\8.1\\s3e\\makefile_builder\\templates\\xcode4_arm.xcscheme'
p301
F1450402404.0
sS'c:\\marmalade\\8.1\\s3e\\makefile_builder\\plugins\\SConsEmitter.pyc'
p302
F1450407978.0
sS'c:\\marmalade\\8.1\\s3e\\makefile_builder\\plugins\\java.pyc'
p303
F1450408042.0
sS'c:\\marmalade\\8.1\\s3e\\makefile_builder\\docs\\deprecated.defines.txt'
p304
F1450402402.0
sS'c:\\marmalade\\8.1\\s3e\\makefile_builder\\templates\\ws81_csproj.pyc'
p305
F1450407978.0
sS'c:\\marmalade\\8.1\\s3e\\makefile_builder\\templates\\win10_ext_sln.pyc'
p306
F1450407898.0
sS'c:\\marmalade\\8.1\\s3e\\makefile_builder\\plugins\\osx_scons.pyc'
p307
F1450407936.0
sS'c:\\marmalade\\8.1\\s3e\\makefile_builder\\templates\\xcode4.xcscheme'
p308
F1450402404.0
sS'c:\\marmalade\\8.1\\s3e\\makefile_builder\\plugins\\win32_vc6.pyc'
p309
F1450407962.0
sS'c:\\marmalade\\8.1\\s3e\\makefile_builder\\plugins\\XcodeEmitter.pyc'
p310
F1453895946.2273834
sS'c:\\marmalade\\8.1\\s3e\\makefile_builder\\plugins\\s3e_scons.pyc'
p311
F1450408108.0
sS'c:\\marmalade\\8.1\\s3e\\makefile_builder\\templates\\wp81_csproj.pyc'
p312
F1450408030.0
sS'c:\\marmalade\\8.1\\s3e\\makefile_builder\\plugins\\xcode4_schememanagement.pyc'
p313
F1453895947.36986
sS'c:\\marmalade\\8.1\\s3e\\makefile_builder\\templates\\xcode_pbxuser.py'
p314
F1450402404.0
sS'c:\\marmalade\\8.1\\s3e\\makefile_builder\\plugins\\wp81_wp81.pyc'
p315
F1450407848.0
sS'c:\\marmalade\\8.1\\s3e\\makefile_builder\\templates\\ws81_ext_csproj.pyc'
p316
F1450408206.0
sS'c:\\marmalade\\8.1\\s3e\\makefile_builder\\docs\\deprecated.options.txt'
p317
F1450402402.0
sS'c:\\marmalade\\8.1\\s3e\\makefile_builder\\templates\\win8_ext_csproj.pyc'
p318
F1450408022.0
sS'c:\\marmalade\\8.1\\s3e\\makefile_builder\\templates\\ws81_vcxproj.pyc'
p319
F1450408222.0
sS'c:\\marmalade\\8.1\\s3e\\makefile_builder\\templates\\vc14_androidnative_sln.pyc'
p320
F1450408022.0
sS'c:\\marmalade\\8.1\\s3e\\makefile_builder\\templates\\Info.plist'
p321
F1450402402.0
sS'c:\\marmalade\\8.1\\s3e\\makefile_builder\\templates\\win32_dsp.pyc'
p322
F1450408318.0
sS'c:\\marmalade\\8.1\\s3e\\makefile_builder\\mkb_option.pyc'
p323
F1450407842.0
sS'c:\\marmalade\\8.1\\s3e\\makefile_builder\\templates\\wp81_sln.pyc'
p324
F1450408066.0
sS'c:\\marmalade\\8.1\\s3e\\makefile_builder\\plugins'
p325
F1453895955.879876
sS'c:\\marmalade\\8.1\\s3e\\makefile_builder\\mkb_launcher.exe'
p326
F1450403666.0
sS'c:\\marmalade\\8.1\\s3e\\makefile_builder\\plugins\\osx_xcode.pyc'
p327
F1450407912.0
sS'c:\\marmalade\\8.1\\s3e\\makefile_builder\\templates\\wp81_ext_sln.pyc'
p328
F1450407990.0
sS'c:\\marmalade\\8.1\\s3e\\makefile_builder\\docs\\deployment_options.txt'
p329
F1450402402.0
sS'c:\\marmalade\\8.1\\s3e\\makefile_builder\\templates\\wp8_csproj.pyc'
p330
F1450408320.0
sS'c:\\marmalade\\8.1\\s3e\\makefile_builder\\templates\\vc6_opt.pyc'
p331
F1450408294.0
sS'c:\\marmalade\\8.1\\s3e\\makefile_builder\\plugins\\S3EEmitter.pyc'
p332
F1450408304.0
sS'c:\\marmalade\\8.1\\s3e\\makefile_builder\\deployment.pyc'
p333
F1450408170.0
sS'c:\\marmalade\\8.1\\s3e\\makefile_builder\\plugins\\linux_scons.pyc'
p334
F1450408372.0
sS'c:\\marmalade\\8.1\\s3e\\makefile_builder\\nacl.mkf'
p335
F1450402402.0
sS'c:\\marmalade\\8.1\\s3e\\makefile_builder\\docs'
p336
F1453893534.2411385
sS'c:\\marmalade\\8.1\\s3e\\makefile_builder\\templates\\vc14_androidproj.pyc'
p337
F1450408094.0
sS'c:\\marmalade\\8.1\\s3e\\makefile_builder\\plugins\\VisualStudioEmitter.pyc'
p338
F1450408030.0
sS'c:\\marmalade\\8.1\\s3e\\makefile_builder\\mkb.py'
p339
F1450402402.0
sS'c:\\marmalade\\8.1\\s3e\\makefile_builder\\plugins\\linux_vc14.pyc'
p340
F1450408172.0
sS'c:\\marmalade\\8.1\\s3e\\makefile_builder\\plugins\\xcode4_schememanagement.py'
p341
F1450402402.0
sS'c:\\marmalade\\8.1\\s3e\\makefile_builder\\templates\\wp8_sln.pyc'
p342
F1450407934.0
sS'c:\\marmalade\\8.1\\s3e\\makefile_builder\\docs\\parse_options.pyc'
p343
F1450408318.0
sS'c:\\marmalade\\8.1\\s3e\\makefile_builder\\plugins\\s3e_vc14_androidnative.pyc'
p344
F1450407996.0
sS'c:\\marmalade\\8.1\\s3e\\makefile_builder\\templates\\win10_csproj.pyc'
p345
F1450408342.0
sS'c:\\marmalade\\8.1\\s3e\\makefile_builder\\plugins\\s3e_win10.pyc'
p346
F1450408022.0
sS'c:\\marmalade\\8.1\\s3e\\makefile_builder\\plugins\\iphone.pyc'
p347
F1450408178.0
sS'c:\\marmalade\\8.1\\s3e\\makefile_builder\\templates\\aarch64_linker_script'
p348
F1450402402.0
sS'c:\\marmalade\\8.1\\s3e\\makefile_builder\\templates\\template.suo'
p349
F1450402402.0
sS'c:\\marmalade\\8.1\\s3e\\makefile_builder\\templates\\wp81_vcxproj.pyc'
p350
F1450407996.0
sS'c:\\marmalade\\8.1\\s3e\\makefile_builder\\docs\\options.txt'
p351
F1450402402.0
sS'c:\\marmalade\\8.1\\s3e\\makefile_builder\\plugins\\s3e_xcode.pyc'
p352
F1453895955.882925
sS'c:\\marmalade\\8.1\\s3e\\makefile_builder\\mkb_main.pyc'
p353
F1450408060.0
sS'c:\\marmalade\\8.1\\s3e\\makefile_builder\\templates\\vc14_androidnative_vcxproj.pyc'
p354
F1450407848.0
sS'c:\\marmalade\\8.1\\s3e\\makefile_builder\\templates\\template.opt'
p355
F1450402402.0
sS'c:\\marmalade\\8.1\\s3e\\makefile_builder\\templates\\qmake_user.py'
p356
F1450402402.0
sS'c:\\marmalade\\8.1\\s3e\\makefile_builder\\templates\\ws81_sln.pyc'
p357
F1450408274.0
sS'c:\\marmalade\\8.1\\s3e\\makefile_builder\\templates\\win32_vcxproj_filters.pyc'
p358
F1450407934.0
sS'c:\\marmalade\\8.1\\s3e\\makefile_builder\\plugins\\s3e_qmake.py'
p359
F1450402402.0
sS'c:\\marmalade\\8.1\\s3e\\makefile_builder\\templates\\linker_script'
p360
F1450402402.0
sS'c:\\marmalade\\8.1\\s3e\\makefile_builder\\templates\\ws8_ext_sln.pyc'
p361
F1450407884.0
sS'c:\\marmalade\\8.1\\s3e\\makefile_builder\\plugins\\null.pyc'
p362
F1450408092.0
sS'c:\\marmalade\\8.1\\s3e\\makefile_builder\\templates\\win32_vcxproj.pyc'
p363
F1450408288.0
sS'c:\\marmalade\\8.1\\s3e\\makefile_builder\\mkb_upstream.pyc'
p364
F1450408108.0
sS'c:\\marmalade\\8.1\\s3e\\makefile_builder\\plugins\\Win8Emitter.pyc'
p365
F1450408148.0
sS'c:\\marmalade\\8.1\\s3e\\makefile_builder\\mkb_parser.pyc'
p366
F1450407996.0
sS'c:\\marmalade\\8.1\\s3e\\makefile_builder\\templates\\win10_sln.pyc'
p367
F1450408312.0
sS'c:\\marmalade\\8.1\\s3e\\makefile_builder\\templates\\scons.pyc'
p368
F1450408338.0
sS'c:\\marmalade\\8.1\\s3e\\makefile_builder\\templates\\ws8_csproj.pyc'
p369
F1450408222.0
sS'c:\\marmalade\\8.1\\s3e\\makefile_builder\\templates\\mips_linker_script'
p370
F1450402402.0
sS'c:\\marmalade\\8.1\\s3e\\makefile_builder\\templates\\ws8_vcxproj.pyc'
p371
F1450408326.0
sS'c:\\marmalade\\8.1\\s3e\\makefile_builder\\plugins\\s3e_wp81.pyc'
p372
F1450408250.0
sS'c:\\marmalade\\8.1\\s3e\\makefile_builder\\templates\\ws8_sln.pyc'
p373
F1450408274.0
sS'c:\\marmalade\\8.1\\s3e\\makefile_builder\\mkb_util.pyc'
p374
F1450407998.0
sS'c:\\marmalade\\8.1\\s3e\\makefile_builder\\plugins\\s3e_win8.pyc'
p375
F1450407988.0
sS'c:\\marmalade\\8.1\\s3e\\makefile_builder\\templates\\wp81_csproj_user.pyc'
p376
F1450408060.0
sS'c:\\marmalade\\8.1\\s3e\\makefile_builder\\templates\\ws8_csproj_user.pyc'
p377
F1450407862.0
sS'c:\\marmalade\\8.1\\s3e\\makefile_builder\\plugins\\win10_win10.pyc'
p378
F1450408304.0
sS'c:\\marmalade\\8.1\\s3e\\makefile_builder\\plugins\\s3e_make.pyc'
p379
F1450407822.0
sS'c:\\marmalade\\8.1\\s3e\\makefile_builder\\templates\\wp8_csproj_user.pyc'
p380
F1450408194.0
sS'c:\\marmalade\\8.1\\s3e\\makefile_builder\\plugins\\s3e_xcode.py'
p381
F1450402402.0
sS'c:\\marmalade\\8.1\\s3e\\makefile_builder\\templates\\win32_vcproj.pyc'
p382
F1450408246.0
sS'c:\\marmalade\\8.1\\s3e\\makefile_builder\\templates\\ws8_ext_csproj.pyc'
p383
F1450407932.0
sS'c:\\marmalade\\8.1\\s3e\\makefile_builder\\templates'
p384
F1453893535.555169
sS'c:\\marmalade\\8.1\\s3e\\makefile_builder\\plugins\\s3e_vc6.pyc'
p385
F1450407930.0
sS'c:\\marmalade\\8.1\\s3e\\makefile_builder\\plugins\\s3e_wp8.pyc'
p386
F1450408252.0
sS'c:\\marmalade\\8.1\\s3e\\makefile_builder\\templates\\gdb_start.txt'
p387
F1450402402.0
sS'c:\\marmalade\\8.1\\s3e\\makefile_builder\\templates\\vc8_user.pyc'
p388
F1450408144.0
sS'c:\\marmalade\\8.1\\s3e\\makefile_builder\\templates\\win10_ext_csproj.pyc'
p389
F1450407860.0
sS'c:\\marmalade\\8.1\\s3e\\makefile_builder\\plugins\\deploy.pyc'
p390
F1450408062.0
sS'c:\\marmalade\\8.1\\s3e\\makefile_builder\\plugins\\ws8_ws8.pyc'
p391
F1450408246.0
sS'c:\\marmalade\\8.1\\s3e\\makefile_builder\\templates\\win32_sln.pyc'
p392
F1450408342.0
sS'c:\\marmalade\\8.1\\s3e\\makefile_builder\\plugins\\win8_utils.pyc'
p393
F1450408304.0
sccopy_reg
_reconstructor
p394
(cmkb_main
MkbFile
p395
c__builtin__
object
p396
Ntp397
Rp398
(dp399
g5
(lp400
sS'target_name'
p401
S'AliceEngine2'
p402
sS'current_file'
p403
g194
sS'package_path'
p404
(lp405
sS'post_build'
p406
(lp407
(lp408
S'c:/marmalade/8.1/s3e/tools'
p409
aS'C:\\Marmalade\\8.1\\s3e\\python\\python.exe .\\process_map.py "$(TargetPath)"'
p410
aa(S'c:\\marmalade\\8.1\\s3e\\bin'
p411
S'"s3e_plink" -l "$(TargetPath)" '
p412
g234
tp413
asS'librarys'
p414
(lp415
g394
(cmkb_main
Library
p416
g396
Ntp417
Rp418
(dp419
S'name'
p420
S'vc12_compat.lib'
p421
sS'expand_name'
p422
I00
sS'include_spec_rvct_objs'
p423
(lp424
sS'include_all_objs'
p425
I00
sS'share_arm'
p426
I00
sS'arch'
p427
S'x86'
p428
sS'nodebug'
p429
I00
sg44
Nsbag394
(g416
g396
Ntp430
Rp431
(dp432
g420
S'iwutil'
p433
sg422
I01
sg423
(lp434
sg425
Nsg426
Nsg427
Nsg429
I00
sg44
Nsbag394
(g416
g396
Ntp435
Rp436
(dp437
g420
S'jpeg'
p438
sg422
I01
sg423
g434
sg425
Nsg426
Nsg427
Nsg429
I00
sg44
Nsbag394
(g416
g396
Ntp439
Rp440
(dp441
g420
S'z'
p442
sg422
I01
sg423
g434
sg425
Nsg426
Nsg427
Nsg429
I00
sg44
Nsbag394
(g416
g396
Ntp443
Rp444
(dp445
g420
S'png'
p446
sg422
I01
sg423
g434
sg425
Nsg426
Nsg427
Nsg429
I00
sg44
Nsbag394
(g416
g396
Ntp447
Rp448
(dp449
g420
S'iw2d'
p450
sg422
I01
sg423
g434
sg425
Nsg426
Nsg427
Nsg429
I00
sg44
Nsbag394
(g416
g396
Ntp451
Rp452
(dp453
g420
S'ATI_Compress_MT_VC7.lib'
p454
sg422
I00
sg423
g434
sg425
Nsg426
Nsg427
S'x86'
p455
sg429
I00
sg44
Nsbag394
(g416
g396
Ntp456
Rp457
(dp458
g420
S'iwgx'
p459
sg422
I01
sg423
g434
sg425
Nsg426
Nsg427
Nsg429
I00
sg44
Nsbag394
(g416
g396
Ntp460
Rp461
(dp462
g420
S'iwgl'
p463
sg422
I01
sg423
g434
sg425
Nsg426
Nsg427
Nsg429
I00
sg44
Nsbag394
(g416
g396
Ntp464
Rp465
(dp466
g420
S'iwgeom'
p467
sg422
I01
sg423
g434
sg425
Nsg426
Nsg427
Nsg429
I00
sg44
Nsbag394
(g416
g396
Ntp468
Rp469
(dp470
g420
S'iwresmanager'
p471
sg422
I01
sg423
g434
sg425
Nsg426
Nsg427
Nsg429
I00
sg44
Nsbag394
(g416
g396
Ntp472
Rp473
(dp474
g420
S'iwgxfont'
p475
sg422
I01
sg423
g434
sg425
Nsg426
Nsg427
Nsg429
I00
sg44
Nsbag394
(g416
g396
Ntp476
Rp477
(dp478
g420
S'tiniconv'
p479
sg422
I01
sg423
g434
sg425
Nsg426
Nsg427
Nsg429
I00
sg44
Nsbag394
(g416
g396
Ntp480
Rp481
(dp482
g420
S's3e_cpp'
p483
sg422
I01
sg423
g424
sg425
I00
sg426
I00
sg427
Nsg429
I00
sg44
Nsbag394
(g416
g396
Ntp484
Rp485
(dp486
g420
S's3e_vc12'
p487
sg422
I01
sg423
(lp488
S'iwcrt.o'
p489
asg425
I00
sg426
I00
sg427
S'x86'
p490
sg429
I00
sg44
Nsbag394
(g416
g396
Ntp491
Rp492
(dp493
g420
S's3e'
p494
sg422
I01
sg423
(lp495
g489
asg425
I00
sg426
I00
sg427
S'!x86'
p496
sg429
I00
sg44
Nsbag394
(g416
g396
Ntp497
Rp498
(dp499
g420
g60
sg422
I01
sg423
g424
sg425
I00
sg426
I00
sg427
S'x86'
p500
sg429
I01
sg44
Nsbag394
(g416
g396
Ntp501
Rp502
(dp503
g420
g60
sg422
I01
sg423
g424
sg425
I00
sg426
I00
sg427
S'!x86'
p504
sg429
I01
sg44
Nsbag394
(g416
g396
Ntp505
Rp506
(dp507
g420
S'stdc++'
p508
sg422
I00
sg423
g424
sg425
I00
sg426
I00
sg427
S'mips'
p509
sg429
I00
sg44
Nsbag394
(g416
g396
Ntp510
Rp511
(dp512
g420
S'c'
p513
sg422
I00
sg423
g424
sg425
I00
sg426
I00
sg427
S'mips'
p514
sg429
I00
sg44
Nsbag394
(g416
g396
Ntp515
Rp516
(dp517
g420
S'm'
p518
sg422
I00
sg423
g424
sg425
I00
sg426
I00
sg427
S'mips'
p519
sg429
I00
sg44
Nsbag394
(g416
g396
Ntp520
Rp521
(dp522
g420
S'gcc'
p523
sg422
I00
sg423
g424
sg425
I00
sg426
I00
sg427
S'mips'
p524
sg429
I00
sg44
Nsbag394
(g416
g396
Ntp525
Rp526
(dp527
g420
g523
sg422
I00
sg423
g424
sg425
I00
sg426
I00
sg427
S'naclx86_64'
p528
sg429
I00
sg44
Nsbag394
(g416
g396
Ntp529
Rp530
(dp531
g420
S'gcc_eh'
p532
sg422
I00
sg423
g424
sg425
I00
sg426
I00
sg427
S'naclx86_64'
p533
sg429
I00
sg44
Nsbag394
(g416
g396
Ntp534
Rp535
(dp536
g420
g513
sg422
I00
sg423
g424
sg425
I00
sg426
I00
sg427
S'naclx86_64'
p537
sg429
I00
sg44
Nsbag394
(g416
g396
Ntp538
Rp539
(dp540
g420
g518
sg422
I00
sg423
g424
sg425
I00
sg426
I00
sg427
S'naclx86_64'
p541
sg429
I00
sg44
Nsbag394
(g416
g396
Ntp542
Rp543
(dp544
g420
S'supc++'
p545
sg422
I00
sg423
g424
sg425
I00
sg426
I00
sg427
S'naclx86_64'
p546
sg429
I00
sg44
Nsbag394
(g416
g396
Ntp547
Rp548
(dp549
g420
S'supc++'
p550
sg422
I00
sg423
g424
sg425
I00
sg426
I00
sg427
S'gcc_x86_android'
p551
sg429
I00
sg44
Nsbag394
(g416
g396
Ntp552
Rp553
(dp554
g420
g513
sg422
I00
sg423
g424
sg425
I00
sg426
I00
sg427
S'gcc_x86_android'
p555
sg429
I00
sg44
Nsbag394
(g416
g396
Ntp556
Rp557
(dp558
g420
g518
sg422
I00
sg423
g424
sg425
I00
sg426
I00
sg427
S'gcc_x86_android'
p559
sg429
I00
sg44
Nsbag394
(g416
g396
Ntp560
Rp561
(dp562
g420
g523
sg422
I00
sg423
g424
sg425
I00
sg426
I00
sg427
S'gcc_x86_android'
p563
sg429
I00
sg44
Nsbag394
(g416
g396
Ntp564
Rp565
(dp566
g420
S'dl'
p567
sg422
I00
sg423
g424
sg425
I00
sg426
I00
sg427
S'gcc_x86_android'
p568
sg429
I00
sg44
Nsbag394
(g416
g396
Ntp569
Rp570
(dp571
g420
S'supc++'
p572
sg422
I00
sg423
g424
sg425
I00
sg426
I00
sg427
S'gcc_arm_android'
p573
sg429
I00
sg44
Nsbag394
(g416
g396
Ntp574
Rp575
(dp576
g420
g513
sg422
I00
sg423
g424
sg425
I00
sg426
I00
sg427
S'gcc_arm_android'
p577
sg429
I00
sg44
Nsbag394
(g416
g396
Ntp578
Rp579
(dp580
g420
g518
sg422
I00
sg423
g424
sg425
I00
sg426
I00
sg427
S'gcc_arm_android'
p581
sg429
I00
sg44
Nsbag394
(g416
g396
Ntp582
Rp583
(dp584
g420
g523
sg422
I00
sg423
g424
sg425
I00
sg426
I00
sg427
S'gcc_arm_android'
p585
sg429
I00
sg44
Nsbag394
(g416
g396
Ntp586
Rp587
(dp588
g420
g567
sg422
I00
sg423
g424
sg425
I00
sg426
I00
sg427
S'gcc_arm_android'
p589
sg429
I00
sg44
NsbasS'library_paths'
p590
(lp591
g394
(cmkb_main
LibraryPath
p592
g396
Ntp593
Rp594
(dp595
S'expand_path'
p596
I01
sg420
S'c:/marmalade/8.1/modules/iwutil'
p597
sbag394
(g592
g396
Ntp598
Rp599
(dp600
g596
I01
sg420
S'c:/marmalade/8.1/modules/third_party/libjpeg'
p601
sbag394
(g592
g396
Ntp602
Rp603
(dp604
g596
I01
sg420
S'c:/marmalade/8.1/modules/third_party/zlib'
p605
sbag394
(g592
g396
Ntp606
Rp607
(dp608
g596
I01
sg420
S'c:/marmalade/8.1/modules/third_party/libpng'
p609
sbag394
(g592
g396
Ntp610
Rp611
(dp612
g596
I01
sg420
S'c:/marmalade/8.1/modules/iw2d'
p613
sbag394
(g592
g396
Ntp614
Rp615
(dp616
g596
I00
sg420
S'c:/marmalade/8.1/modules/iwgx/atitools'
p617
sbag394
(g592
g396
Ntp618
Rp619
(dp620
g596
I01
sg420
S'c:/marmalade/8.1/modules/iwgx'
p621
sbag394
(g592
g396
Ntp622
Rp623
(dp624
g596
I01
sg420
S'c:/marmalade/8.1/modules/iwgl'
p625
sbag394
(g592
g396
Ntp626
Rp627
(dp628
g596
I01
sg420
S'c:/marmalade/8.1/modules/iwgeom'
p629
sbag394
(g592
g396
Ntp630
Rp631
(dp632
g596
I01
sg420
S'c:/marmalade/8.1/modules/iwresmanager'
p633
sbag394
(g592
g396
Ntp634
Rp635
(dp636
g596
I01
sg420
S'c:/marmalade/8.1/modules/iwgxfont'
p637
sbag394
(g592
g396
Ntp638
Rp639
(dp640
g596
I01
sg420
S'c:/marmalade/8.1/modules/third_party/tiniconv'
p641
sbag394
(g592
g396
Ntp642
Rp643
(dp644
g596
I01
sg420
S'c:/marmalade/8.1/s3e'
p645
sbasS'macros'
p646
(dp647
S'IW_TRACE_CHANNEL_AMAZONADS'
p648
S'1'
p649
sS'IW_USE_CALLSTACK'
p650
NsS'IW_PLATFORM_S3E'
p651
NsS'I3D_PLATFORM_S3E'
p652
NsS'IW_MKF_IW2DSCENEGRAPHCORE'
p653
NsS'IW_TRACE_CHANNEL_AMAZONADS_VERBOSE'
p654
S'2'
p655
sS'IW_MKF_LIBJPEG'
p656
NsS'I3D_OS_S3E'
p657
NsS'IW_MKF_PVRTEXTOOL'
p658
NsS'IW_MKF_AMAZON_ADS_IOS_SDK'
p659
NsS'IW_MKF_TINICONV'
p660
NsS'IW_APP_VERSION'
p661
S'"1.0"'
p662
sS'__S3E__'
p663
NsS'IW_MKF_IWRESMANAGER'
p664
NsS'IW_MKF_FREELICENSE'
p665
NsS'IW_MKF_S3EAMAZONADS'
p666
NsS'IW_MKF_IWUTIL'
p667
NsS'IW_SDK'
p668
NsS'IW_MKF_AMAZON_ADS_ANDROID_SDK'
p669
NsS'IW_ASSERTION_CHANNEL_2D'
p670
g649
sS'IW_APP_NAME'
p671
S'"AliceEngine2"'
p672
sS'IW_MKF_S3E_DEFAULT'
p673
NsS'IW_MKF_IWGXFONT'
p674
NsS'IW_MKF_IWTWEEN'
p675
NsS'IW_MKF_ZLIB'
p676
NsS'IW_MKF_IWGX'
p677
NsS'IW_MKF_IW2DSCENEGRAPH'
p678
NsS'IW_ASSERTION_CHANNEL_AMAZONADS'
p679
g649
sS'IW_USE_ASSERTIONS'
p680
NsS'_CRT_SECURE_NO_DEPRECATE'
p681
NsS'IW_MKF_IWGL'
p682
NsS'IW_MKF_LIBPNG'
p683
NsS'IW_TRACE_CHANNEL_IW_2DSCENEGRAPH'
p684
g649
sS'IW_DEBUG'
p685
NsS'IW_USE_TRACING'
p686
NsS'IW_ASSERTION_CHANNEL_IW_2DSCENEGRAPH'
p687
g649
sS'IW_TRACE_CHANNEL_PVRTEXTOOL'
p688
g649
sS'S3E_INCLUDE_LEGACY'
p689
NsS'IW_TRACE_CHANNEL_PVRTEXTOOL_VERBOSE'
p690
g655
sS'IW_MKF_IW2D'
p691
NsS'IW_MKF_IWGEOM'
p692
NsS'IW_ASSERTION_CHANNEL_PVRTEXTOOL'
p693
g649
ssS'done_warnings'
p694
(dp695
sS'subprojects'
p696
(dp697
g101
S'zlib'
p698
sg123
S'iwresmanager'
p699
sg90
S's3eAmazonAds'
p700
sg93
S'iwutil'
p701
sg127
S'iwgxfont'
p702
sg121
S'iwgeom'
p703
sg110
S'iw2dscenegraph'
p704
sg129
S'tiniconv'
p705
sg87
S's3e-default.mkf'
p706
sg112
S'iw2d'
p707
sg96
S'libjpeg'
p708
sg108
S'iw2dscenegraphcore'
p709
sg125
S'PVRTexTool'
p710
sg99
S'libpng'
p711
sg106
S'amazon-ads-ios-sdk'
p712
sg104
S'amazon-ads-android-sdk'
p713
sg118
S'iwgl'
p714
sg132
S'iwtween'
p715
sg115
S'iwgx'
p716
ssS'deployments'
p717
(dp718
S'Default'
p719
g394
(cdeployment
Deployment
p720
g396
Ntp721
Rp722
(dp723
S'got_version'
p724
I0
sg420
g719
sS'target_loc'
p725
S';-1'
p726
sS'value_list'
p727
(lp728
(S'android-external-jars'
p729
(lp730
S'c:/marmalade/8.1/platform_libs/android/amazon-ads-android-sdk/third_party/lib/amazon-ads-5.5.149.jar'
p731
aS'c:/marmalade/8.1/platform_libs/android/amazon-ads-android-sdk/amazon-ads-android-sdk.mkf'
p732
I7
tp733
a(S'iphone-link-opts'
p734
S'-Fc:/marmalade/8.1/platform_libs/iphone/amazon-ads-ios-sdk/third_party/Ads -framework AmazonAd'
p735
S'c:/marmalade/8.1/platform_libs/iphone/amazon-ads-ios-sdk/amazon-ads-ios-sdk.mkf'
p736
I13
tp737
a(S'iphone-link-opts'
p738
S'-weak_framework AdSupport -weak_framework CoreLocation -weak_framework SystemConfiguration'
p739
g736
I14
tp740
a(S'iphone-link-opts'
p741
S'-weak_framework CoreTelephony -weak_framework MediaPlayer'
p742
g736
I15
tp743
a(S'iphone-link-opts'
p744
S'-weak_framework EventKit -weak_framework EventKitUI'
p745
g736
I16
tp746
a(S'android-external-jars'
p747
(lp748
S'c:/marmalade/8.1/extensions/s3eamazonads/lib/android/s3eAmazonAds.jar'
p749
ag94
I48
tp750
a(S'android-so'
p751
S'c:/marmalade/8.1/extensions/s3eamazonads/lib/android/libs3eAmazonAds.so'
p752
g94
I49
tp753
a(S'android-extra-application-manifest'
p754
(lp755
S'c:/marmalade/8.1/extensions/s3eamazonads/source/android/ExtraAppManifests.xml'
p756
ag94
I50
tp757
a(S'android-ext-target-sdk-version'
p758
I17
g94
I51
tp759
a(S'android-ext-min-sdk-version'
p760
I4
g94
I52
tp761
a(S'iphone-link-lib'
p762
S's3eAmazonAds'
p763
g94
I59
tp764
a(S'iphone-link-libdir'
p765
S'c:/marmalade/8.1/extensions/s3eamazonads/lib/iphone'
p766
g94
I60
tp767
a(S'iphone-extra-plist'
p768
(lp769
S'c:/marmalade/8.1/extensions/s3eamazonads/s3eAmazonAds.plist'
p770
ag94
I61
tp771
a(S'win32-ext-dll'
p772
S'c:/marmalade/8.1/extensions/pvrtextool/lib/win32/PVRTexTool.dll'
p773
S'c:/marmalade/8.1/extensions/pvrtextool/pvrtextool.mkf'
p774
I39
tp775
a(S'osx-ext-dll'
p776
S'c:/marmalade/8.1/extensions/pvrtextool/lib/osx/libPVRTexTool.dylib'
p777
g774
I46
tp778
asS'mkb'
p779
g398
sS'target'
p780
NsS'config_loc'
p781
(lp782
sg427
(lp783
sS'options'
p784
(dp785
S'iphone-link-lib'
p786
(lp787
g763
asS'game-icf'
p788
NsS'android-tm'
p789
NsS'winmobile-icon32'
p790
NsS'ws8-logo-image150x150'
p791
NsS'wp81-logo-image150x150'
p792
NsS'win10-product-name'
p793
NsS'android-keystore'
p794
NsS'osx-ext-dll'
p795
(lp796
g777
asS'iphone-provisioning-profile'
p797
NsS'win10-identity-name'
p798
NsS'ws8-splash-screen-image620x300'
p799
NsS'wp81-extra-pri'
p800
(lp801
sS'ws8-ext-capabilities'
p802
(lp803
sS'android-icon-hdpi'
p804
NsS'iphone-ipad-only'
p805
NsS'iphone-splash-full-orient'
p806
NsS'wp8-tile-fliptemplate-supports-large'
p807
NsS'iphone-show-status-bar'
p808
NsS'roku-requires-mkv'
p809
NsS'long-caption'
p810
NsS'android-pkgname'
p811
NsS'ws8-ext-native-only-dll'
p812
(lp813
sS'wp81-publisher-display-name'
p814
NsS'win10-logo-image150x150'
p815
NsS'blackberry-permissions-read-device-identifying-information'
p816
NsS'ws81-certificate-end-date'
p817
NsS'psp-dlgcontentid'
p818
NsS'android-version-code'
p819
NsS'win10-ext-uap-capabilities'
p820
(lp821
sS'iphone-minimum-ios-version'
p822
NsS'target-folder'
p823
NsS'tizen-dist1-CA-path'
p824
NsS'symbian-icon2-format'
p825
NsS'tizen-author-key'
p826
NsS'firefoxos-icon-128X128'
p827
NsS'iphone-region'
p828
NsS'uiq3-icon3-mask'
p829
NsS'brew-encoding'
p830
NsS'version'
p831
NsS'nds-initialcode'
p832
NsS'win10-ext-native-dll'
p833
(lp834
sS'iphone-persistent-wifi'
p835
NsS'psp-snd0'
p836
NsS'roku-icon-focus-hd'
p837
NsS'osx-appid'
p838
NsS'ws81-ext-native-only-dll'
p839
(lp840
sS'winmobile-install-folder'
p841
NsS'android-external-res'
p842
(lp843
sS'ws8-product-version'
p844
NsS'brew-priviledges'
p845
NsS'iphone-icon-ipad-search'
p846
NsS'iphone-icon-ipad'
p847
NsS'iphone-skip-icon-generation'
p848
NsS'nacl-icon-128X128'
p849
NsS'roku-hidden'
p850
NsS'psp-titlename'
p851
NsS'wp81-product-version'
p852
NsS'symbian-icon1-mask'
p853
NsS'psp-parentallevel'
p854
NsS'iphone-launch-storyboard'
p855
NsS'splashscreen-use-all'
p856
NsS'symbian-disable-ecompxl'
p857
NsS'splashscreen-auto-onblack'
p858
NsS'iphone-icon-dir'
p859
NsS'iphone-icon-extra'
p860
NsS'win32-ext-dll'
p861
(lp862
g773
asS'iphone-development-key'
p863
NsS'winmobile-icon48'
p864
NsS'android-unsigned'
p865
NsS'osx-appstore-category'
p866
NsS'version-revision'
p867
NsS'roku-icon-focus-sd'
p868
NsS'ws81-product-version'
p869
NsS'winmobile-png90'
p870
NsS'iphone-icon-ipad-high-res'
p871
NsS'iphone-disable-ipad'
p872
NsS'ws81-splash-screen-background'
p873
NsS'wp8-ext-capabilities'
p874
(lp875
sS'brew-icon-large'
p876
NsS'symbian-icon1-mask-black'
p877
NsS'ws8-extra-res'
p878
(lp879
sS'iphone-bundle-localisations'
p880
NsS'winmobile-png60'
p881
NsS'blackberry-permissions-access-shared'
p882
NsS'blackberry-author'
p883
NsS'android-icon-xxxhdpi'
p884
NsS'iphone-extra-plugins'
p885
(lp886
sS'android_icon_gallery'
p887
NsS'win10-distribution-pfx-password'
p888
NsS'wp81-splash-screen-background'
p889
NsS'wp8-exclude-720p'
p890
NsS'iphone-info-plist'
p891
NsS'ws81-ext-managed-dll'
p892
(lp893
sS'playbook-cskpass'
p894
NsS'win10-description'
p895
NsS'ws8-distribution-pfx-password'
p896
NsS'symbian-key'
p897
NsS'app-icf'
p898
NsS'blackberry-storepass'
p899
NsS'wp8-tile-fliptemplate-back-title'
p900
NsS'brew-compress-loader'
p901
NsS'iphone-testflight'
p902
NsS'win32-pref-windowposy'
p903
NsS'win32-pref-windowposx'
p904
NsS'roku-requires-audiometadata'
p905
NsS'wp8-exclude-low-mem'
p906
NsS'android-min-sdk-version'
p907
NsS'wp8-tile-fliptemplate-title'
p908
NsS'iphone-icon-ipad-search-high-res'
p909
NsS'iphone-link-libdir'
p910
(lp911
g766
asS'wp81-ext-capabilities'
p912
(lp913
sS'blackberry-permissions-read-geolocation'
p914
NsS'win10-splash-screen-image620x300'
p915
NsS'ws81-ext-device-capabilities'
p916
(lp917
sS'tizen-signed'
p918
NsS'android-extra-application-manifest'
p919
(lp920
g756
asS'android-x86'
p921
NsS'win10-extra-res'
p922
(lp923
sS'ws8-ext-native-dll'
p924
(lp925
sS'symbian-icon2-mask'
p926
NsS'iphone-launch-extra'
p927
NsS'webos-memory'
p928
NsS'android-keypass'
p929
NsS'name'
p930
NsS'uiq3-icon2-format'
p931
NsS'roku-splash-screen-sd'
p932
NsS'auto-derbh'
p933
NsS'roku-icon-side-sd'
p934
NsS'android-external-assets'
p935
(lp936
sS'nds-publicsavedatasize'
p937
NsS'splashscreen'
p938
NsS'wp8-product-id'
p939
NsS'iphone-icon-settings-high-res'
p940
NsS'android-manifest'
p941
NsS'ws81-splash-screen-image620x300'
p942
NsS'wp81-product-name'
p943
NsS's3e-compression'
p944
NsS'tizen-author-password'
p945
NsS'wp8-tile-fliptemplate-back-content'
p946
NsS'blackberry-extra-descriptor'
p947
(lp948
sS'android-java-source-version'
p949
NsS'symbian-icon1'
p950
NsS'symbian-icon2'
p951
NsS'nds-makercode'
p952
NsS'android-extra-styles-file'
p953
NsS'android-ext-target-sdk-version'
p954
(lp955
I17
asS'wp81-publisher-id'
p956
NsS'nds-bannertitle-jp'
p957
NsS'wp81-logo-image44x44'
p958
NsS'osx-sign-for-store'
p959
NsS'symbian7-uid'
p960
NsS'iphone-splash'
p961
NsS'wp81-phone-publisher-id'
p962
NsS'olddeploytoolstyle'
p963
NsS'nds-bannertitle-cn'
p964
NsS'iphone-distribution-key'
p965
NsS'win10-phone-publisher-id'
p966
NsS'android-icon-gallery'
p967
NsS'blackberry-keystore'
p968
NsS'iphone-nosign'
p969
NsS'caption'
p970
NsS'nacl-permissions'
p971
NsS'android-extra-manifest'
p972
(lp973
sS'wp81-ext-sdk-ref'
p974
(lp975
sS'android-icon-xxhdpi'
p976
NsS'version-minor'
p977
NsS'iphone-skip-launch-generation'
p978
NsS'iphone-link-libdirs'
p979
(lp980
sS'iphone-icon-large'
p981
NsS'symbian-keypwd'
p982
NsS'symbian8-uid'
p983
NsS'symbian-cert-key'
p984
NsS'winmobile-ampd-part-number'
p985
NsS'arch'
p986
NsS'nds-romheadertemplate'
p987
NsS'webos-icon'
p988
NsS'wp81-ext-device-capabilities'
p989
(lp990
sS'psp-dlgprotectdocument'
p991
NsS'ws8-splash-screen-background'
p992
NsS'android-icon-mdpi'
p993
NsS'android-sdk-build-tools-version'
p994
NsS'nds-icon'
p995
NsS'ws8-custom-manifest-fill'
p996
NsS'iphone-development-cert'
p997
NsS'symbian-icon2-mask-black'
p998
NsS'blackberry-phone-icon'
p999
NsS'iphone-enable-4inch-retina'
p1000
NsS'ws8-custom-manifest'
p1001
NsS'version-major'
p1002
NsS'wp8-genre-isgame'
p1003
NsS'uiq3-uid'
p1004
NsS'iphone-splash-retina-generate'
p1005
NsS'tizen-hw-acceleration'
p1006
NsS'iphone_bundle_localisations'
p1007
NsS'tizen-dist1-key'
p1008
NsS'wp81-custom-manifest-fill'
p1009
NsS'wp8-custom-manifest'
p1010
NsS'nds-bannertitle-ge'
p1011
NsS'iphone-sign-for-distribution'
p1012
NsS'wp8-tile-fliptemplate-medium-back-image'
p1013
NsS'wp8-publisher-id'
p1014
NsS'icon'
p1015
NsS'android-target-sdk-version'
p1016
NsS'win10-ext-capabilities'
p1017
(lp1018
sS'wp8-exclude-wxga'
p1019
NsS'android-icon-dir'
p1020
NsS'uiq3-icon2-mask'
p1021
NsS'iphone-splashscreen-portrait'
p1022
NsS'iphone-icon-high-res'
p1023
NsS'ws81-distribution-pfx-password'
p1024
NsS'playbook-author'
p1025
NsS'wp8-custom-manifest-fill'
p1026
NsS'linux-ext-lib'
p1027
(lp1028
sS'blackberry-permissions-access-internet'
p1029
NsS'lgtv-use-drm'
p1030
NsS'win10-splash-screen-image480x800'
p1031
NsS'symbian-platsecflags'
p1032
NsS'ws8-description'
p1033
NsS'blackberry-playbook-icon'
p1034
NsS'win10-distribution-cer'
p1035
NsS'copyright'
p1036
NsS'winmobile-cab-compress'
p1037
NsS'win32-gles-directory'
p1038
NsS'wp8-author'
p1039
NsS'android-ext-min-sdk-version'
p1040
(lp1041
I4
asS'iphone-uiviewcontroller-based-status-bar'
p1042
NsS'ws81-logo-image150x150'
p1043
NsS'osx-signing-identity-app'
p1044
NsS'tizen-project-url'
p1045
NsS'symbian-icon-svg'
p1046
NsS'android-aliasname'
p1047
NsS'psp-dlgmanual'
p1048
NsS'brew-uid'
p1049
NsS'wp81-ext-native-only-dll'
p1050
(lp1051
sS'symbian-locationsupport'
p1052
NsS'wp81-logo-image50x50'
p1053
NsS'ws8-ext-managed-dll'
p1054
(lp1055
sS'nds-bannertitle-it'
p1056
NsS'ws81-custom-manifest-fill'
p1057
NsS'ws8-ext-sdk-manifest-part'
p1058
(lp1059
sS'uiq3-icon1-mask'
p1060
NsS'winmobile-icon16'
p1061
NsS'ws8-product-name'
p1062
NsS'blackberry-cskpass'
p1063
NsS'winmobile-start-menu-folder'
p1064
NsS'brew-clsid'
p1065
NsS'roku-requires-bluetooth'
p1066
NsS'iphone-default-development-profile'
p1067
NsS'ws8-ext-device-capabilities'
p1068
(lp1069
sS'blackberry-permissions-use-camera'
p1070
NsS'ws81-extra-pri'
p1071
(lp1072
sS'iphone-prerendered-icon'
p1073
NsS'iphone-appid'
p1074
NsS'ws8-identity-name'
p1075
NsS'tizen-dist2-CA-path'
p1076
NsS'android-external-jars'
p1077
(lp1078
g731
ag749
asS'winmobile-icon64'
p1079
NsS'blackberry-permissions-post-notification'
p1080
NsS'winmobile-setup-dll'
p1081
NsS'firefoxos-manifest'
p1082
NsS'win8-winrt-extra-res'
p1083
(lp1084
sS'wp81-ext-sdk-manifest-part'
p1085
(lp1086
sS'symbian9-uid'
p1087
NsS'iphone-icon-ipad-ios7'
p1088
NsS'winmobile-trace-file'
p1089
NsS'roku-splash-color'
p1090
NsS'psp-appversion'
p1091
NsS'android-java-target-version'
p1092
NsS'ws8-publisher-id'
p1093
NsS'win10-splash-screen-background'
p1094
NsS'win10-product-id'
p1095
NsS'win10-logo-image30x30'
p1096
NsS'winmobile-png45'
p1097
NsS'wp81-extra-res'
p1098
(lp1099
sS'android-storepass'
p1100
NsS'nacl-icon-16X16'
p1101
NsS'osx-signing-identity-inst'
p1102
NsS'android-custom-activity'
p1103
NsS'psp-discversion'
p1104
NsS'wp81-ext-managed-dll'
p1105
(lp1106
sS'nacl-clear-user-data'
p1107
NsS'psp-copyright'
p1108
NsS'win10-ext-managed-dll'
p1109
(lp1110
sS'win10-logo-image50x50'
p1111
NsS'embed-icf'
p1112
NsS'tizen-manifest'
p1113
NsS'osx-icon'
p1114
NsS'webos-appinfo'
p1115
NsS'psp-dlghealthwarning'
p1116
NsS'webos-appid'
p1117
NsS'roku-icon-side-hd'
p1118
NsS'iphone-icon-ipad-search-high-res-ios7'
p1119
NsS'iphone-extra-plist'
p1120
(lp1121
g770
asS'ws81-ext-sdk-manifest-part'
p1122
(lp1123
sS'loader_name_prefix'
p1124
NsS'iphone-launch-dir'
p1125
NsS'nds-titlename'
p1126
NsS'ws81-logo-image50x50'
p1127
NsS'wp81-custom-manifest'
p1128
NsS'osx-entitlements-plist'
p1129
NsS'win10-product-version'
p1130
NsS'psp-dlgicon0'
p1131
NsS'winmobile-nouninstall'
p1132
NsS'psp-discid'
p1133
NsS'tizen-dist2-password'
p1134
NsS'android-supports-gl-texture'
p1135
(lp1136
sS'ws8-ext-sdk-ref'
p1137
(lp1138
sS'iphone-extra-string'
p1139
(lp1140
sS'version-string'
p1141
NsS'iphone-icon-high-res-ios7'
p1142
NsS'ws8-certificate-end-date'
p1143
NsS'nacl-skip-zip'
p1144
NsS'win10-custom-manifest'
p1145
NsS'tizen-so'
p1146
(lp1147
sS'win10-logo-image44x44'
p1148
NsS'win10-custom-manifest-fill'
p1149
NsS'wp8-tile-fliptemplate-small-image'
p1150
NsS'win10-certificate-end-date'
p1151
NsS'playbook-authorid'
p1152
NsS'win10-publisher-id'
p1153
NsS'iphone-signing-identity'
p1154
NsS'roku-persist-quota'
p1155
NsS'nds-bannertitle-fr'
p1156
NsS'ws8-distribution-pfx'
p1157
NsS'ws8-publisher-display-name'
p1158
NsS'brew-icon-small'
p1159
NsS'psp-dlgpic2'
p1160
NsS'psp-dlgpic0'
p1161
NsS'win10-phone-product-id'
p1162
NsS'psp-pic0'
p1163
NsS'psp-pic1'
p1164
NsS'win32-pref-windowtitle'
p1165
NsS'psp-icon0'
p1166
NsS'psp-icon1'
p1167
NsS'ws81-identity-name'
p1168
NsS'win10-distribution-pfx'
p1169
NsS'winmobile-icon'
p1170
NsS'iphone-no-splash'
p1171
NsS'wp8-tile-fliptemplate-large-back-content'
p1172
NsS'iphone-app-fonts'
p1173
NsS'wp8-ext-native-dll'
p1174
(lp1175
sS'wp81-splash-screen-image480x800'
p1176
NsS'ws81-distribution-cer'
p1177
NsS'win10-ext-sdk-manifest-part'
p1178
(lp1179
sS'uiq3-icon2'
p1180
NsS'uiq3-icon3'
p1181
NsS'uiq3-icon1'
p1182
NsS'uiq3-icon1-format'
p1183
NsS'ws8-logo-image50x50'
p1184
NsS'iphone-info-plist-override'
p1185
NsS'symbian-run-on-install'
p1186
NsS'wp81-description'
p1187
NsS'ws81-publisher-display-name'
p1188
NsS'android-version-name'
p1189
NsS'firefoxos-xulrunner'
p1190
NsS'symbian-soundrecordsupport'
p1191
NsS'iphone-backgroundmode-audio'
p1192
NsS'nds-bannertitle-sp'
p1193
NsS'win10-extra-pri'
p1194
(lp1195
sS'psp-producer'
p1196
NsS'iphone-apple-wwdr-cert'
p1197
NsS'android-icon-nonstandard'
p1198
NsS'win32-pref-processtitle'
p1199
NsS'android-icon-xhdpi'
p1200
NsS'nds-bannertitle-hn'
p1201
NsS'tizen-dist2-key'
p1202
NsS'brew-depends'
p1203
NsS'ws81-custom-manifest'
p1204
NsS'iphone-allow-launch-rotation'
p1205
NsS'brew-mif'
p1206
NsS'iphone-icon-ipad-search-ios7'
p1207
NsS'brew-icon-medium'
p1208
NsS'iphone-bundle-url-name'
p1209
NsS'wp8-tile-fliptemplate-large-front-image'
p1210
NsS'tizen-dist2-CA-root-path'
p1211
NsS'ws81-description'
p1212
NsS'uiq3-icon3-format'
p1213
NsS'win10-publisher-display-name'
p1214
NsS'ws81-logo-image30x30'
p1215
NsS'win10-ext-device-capabilities'
p1216
(lp1217
sS'win8-phone-extra-res'
p1218
(lp1219
sS'iphone-signing-host'
p1220
NsS'tizen-icon'
p1221
NsS'osx-info-plist'
p1222
NsS'symbian-icon1-format'
p1223
NsS'ws81-distribution-pfx'
p1224
NsS'win32-aux-dll'
p1225
(lp1226
sS'blackberry-authorid'
p1227
NsS'ws81-publisher-id'
p1228
NsS'win8-store-extra-res'
p1229
(lp1230
sS'wp8-description'
p1231
NsS'iphone-link-opts'
p1232
(lp1233
g735
ag739
ag742
ag745
asS'ws81-ext-sdk-ref'
p1234
(lp1235
sS'roku-splash-min-time'
p1236
NsS'wp8-tile-fliptemplate-medium-front-image'
p1237
NsS'iphone-disable-launch-images'
p1238
NsS'android-sdk-platform-version'
p1239
NsS'provider'
p1240
NsS'playbook-keystore'
p1241
NsS'tizen-appid'
p1242
NsS'iphone-application-type'
p1243
NsS'wp8-extra-res'
p1244
(lp1245
sS'symbian-osexecsupport'
p1246
NsS'android-install-location'
p1247
NsS'nds-privatesavedatasize'
p1248
NsS'iphone-disable-testflight'
p1249
NsS'playbook-storepass'
p1250
NsS'android-icon-ldpi'
p1251
NsS'manufacturer'
p1252
NsS'itunes-artwork'
p1253
NsS'iphone-extra-sections'
p1254
NsS'ws81-product-name'
p1255
NsS'ws81-ext-native-dll'
p1256
(lp1257
sS'ws8-extra-pri'
p1258
(lp1259
sS'win32-icon'
p1260
NsS'ws8-logo-image30x30'
p1261
NsS'wp8-ext-managed-dll'
p1262
(lp1263
sS'iphone-splashscreen-landscape'
p1264
NsS'symbian-maxheapsize'
p1265
NsS'android-extra-packages'
p1266
(lp1267
sS'priv-sign-key'
p1268
NsS'networking'
p1269
NsS'android-icon'
p1270
NsS'iphone-icon-settings'
p1271
NsS'nacl-manifest'
p1272
NsS'wp81-phone-product-id'
p1273
NsS'firefoxos-icon-60X60'
p1274
NsS'iphone-distribution-cert'
p1275
NsS'android_extra_strings'
p1276
NsS'nds-bannertitle-en'
p1277
NsS'blackberry-permissions-record-audio'
p1278
NsS'android-so'
p1279
(lp1280
g752
asS'wp8-higher-mem'
p1281
NsS'wp8-ext-sdk-ref'
p1282
(lp1283
sS'wp8-fast-resume-mode'
p1284
NsS'roku-splash-screen-hd'
p1285
NsS'iphone-bundle-url-schemes'
p1286
NsS'roku-screensaver-private'
p1287
NsS'osx-extra-res'
p1288
(lp1289
sS'ws81-extra-res'
p1290
(lp1291
sS'wp81-identity-name'
p1292
NsS'playbook-icon'
p1293
NsS'uid'
p1294
NsS'pkguid-as-uid'
p1295
NsS'wp81-ext-native-dll'
p1296
(lp1297
sS'tizen-dist1-password'
p1298
NsS'roku-screensaver-title'
p1299
NsS'osx-minimum-osx-version'
p1300
NsS'symbian-cert'
p1301
NsS'iphone-icon'
p1302
NsS'ws81-ext-capabilities'
p1303
(lp1304
sS'ws8-distribution-cer'
p1305
NsS'playbook-access-shared'
p1306
NsS'iphone-icon-ipad-high-res-ios7'
p1307
NsS'iphone-link-libs'
p1308
(lp1309
sS'wp8-exclude-wvga'
p1310
NsS'assets'
p1311
NsS'wp8-tile-fliptemplate-large-back-image'
p1312
NsS'pub-sign-key'
p1313
NsS'nacl-legacy-ext'
p1314
NsS'android-extra-strings'
p1315
(lp1316
sS'tizen-author-CA-path'
p1317
NssS'assets'
p1318
g719
sbssS'platform'
p1319
S'S3E'
p1320
sg77
S'1.0'
p1321
sS'arcade_platform'
p1322
g4
sS'extensions'
p1323
(dp1324
sS'source_groups_tree'
p1325
(dp1326
S'(libpng)'
p1327
(dp1328
S'h'
p1329
(dp1330
S'c:/marmalade/8.1/modules/third_party/libpng/h/png.h'
p1331
(lp1332
I1
a(dp1333
asS'c:/marmalade/8.1/modules/third_party/libpng/h/pngconf.h'
p1334
(lp1335
I1
ag1333
assS'c:/marmalade/8.1/modules/third_party/libpng/libpng.mkf'
p1336
(lp1337
I1
a(dp1338
assS'(amazon-ads-android-sdk)'
p1339
(dp1340
S'c:/marmalade/8.1/platform_libs/android/amazon-ads-android-sdk/amazon-ads-android-sdk.mkf'
p1341
(lp1342
I1
a(dp1343
assS'(tiniconv)'
p1344
(dp1345
S'c:/marmalade/8.1/modules/third_party/tiniconv/source/tiniconv.h'
p1346
(lp1347
I1
a(dp1348
asS'c:/marmalade/8.1/modules/third_party/tiniconv/source/tiniconv_int.h'
p1349
(lp1350
I1
ag1348
asS'c:/marmalade/8.1/modules/third_party/tiniconv/tiniconv.mkf'
p1351
(lp1352
I1
a(dp1353
assS'RenderEngine'
p1354
(dp1355
S'c:/Users/conor/Documents/WorldGrid/Github/RenderEngine/Scene.h'
p1356
(lp1357
I1
a(dp1358
asS'c:/Users/conor/Documents/WorldGrid/Github/RenderEngine/AnimatedImage.h'
p1359
(lp1360
I1
ag1358
asS'c:/Users/conor/Documents/WorldGrid/Github/RenderEngine/SceneManager.cpp'
p1361
(lp1362
I1
ag1358
asS'c:/Users/conor/Documents/WorldGrid/Github/RenderEngine/WorldGrid.cpp'
p1363
(lp1364
I1
ag1358
asS'c:/Users/conor/Documents/WorldGrid/Github/RenderEngine/SimpleTile.cpp'
p1365
(lp1366
I1
ag1358
asS'c:/Users/conor/Documents/WorldGrid/Github/RenderEngine/AnimatedImage.cpp'
p1367
(lp1368
I1
ag1358
asS'c:/Users/conor/Documents/WorldGrid/Github/RenderEngine/WorldGrid.h'
p1369
(lp1370
I1
ag1358
asS'c:/Users/conor/Documents/WorldGrid/Github/RenderEngine/Scene.cpp'
p1371
(lp1372
I1
ag1358
asS'c:/Users/conor/Documents/WorldGrid/Github/RenderEngine/SceneManager.h'
p1373
(lp1374
I1
ag1358
asS'c:/Users/conor/Documents/WorldGrid/Github/RenderEngine/SimpleImage.h'
p1375
(lp1376
I1
ag1358
asS'c:/Users/conor/Documents/WorldGrid/Github/RenderEngine/ParentTile.h'
p1377
(lp1378
I1
ag1358
asS'c:/Users/conor/Documents/WorldGrid/Github/RenderEngine/RenderableInterface.h'
p1379
(lp1380
I1
ag1358
asS'c:/Users/conor/Documents/WorldGrid/Github/RenderEngine/TileInterface.h'
p1381
(lp1382
I1
ag1358
asS'c:/Users/conor/Documents/WorldGrid/Github/RenderEngine/DrawableInterface.h'
p1383
(lp1384
I1
ag1358
asS'c:/Users/conor/Documents/WorldGrid/Github/RenderEngine/ParentTile.cpp'
p1385
(lp1386
I1
ag1358
asS'c:/Users/conor/Documents/WorldGrid/Github/RenderEngine/SimpleImage.cpp'
p1387
(lp1388
I1
ag1358
asS'c:/Users/conor/Documents/WorldGrid/Github/RenderEngine/SimpleTile.h'
p1389
(lp1390
I1
ag1358
assS'(amazon-ads-ios-sdk)'
p1391
(dp1392
S'c:/marmalade/8.1/platform_libs/iphone/amazon-ads-ios-sdk/amazon-ads-ios-sdk.mkf'
p1393
(lp1394
I1
a(dp1395
assS'CommonClasses'
p1396
(dp1397
S'c:/Users/conor/Documents/WorldGrid/Github/CommonClasses/ManagerInterface.h'
p1398
(lp1399
I1
ag1358
asS'c:/Users/conor/Documents/WorldGrid/Github/CommonClasses/GenericFactory.h'
p1400
(lp1401
I1
ag1358
assS'GameEngineCore'
p1402
(dp1403
S'c:/Users/conor/Documents/WorldGrid/Github/GameEngineCore/Main.cpp'
p1404
(lp1405
I1
ag1358
asS'c:/Users/conor/Documents/WorldGrid/Github/GameEngineCore/Game.cpp'
p1406
(lp1407
I1
ag1358
asS'c:/Users/conor/Documents/WorldGrid/Github/GameEngineCore/Game.h'
p1408
(lp1409
I1
ag1358
assS'Extensions'
p1410
(dp1411
S's3eAmazonAds'
p1412
(dp1413
S'interface'
p1414
(dp1415
S'c:/marmalade/8.1/extensions/s3eamazonads/interface/s3eAmazonAds.defines.txt'
p1416
(lp1417
I1
a(dp1418
asS'c:/marmalade/8.1/extensions/s3eamazonads/interface/s3eAmazonAds_interface.cpp'
p1419
(lp1420
I1
ag1418
assS'c:/marmalade/8.1/extensions/s3eamazonads/h/s3eAmazonAds.h'
p1421
(lp1422
I1
ag1418
asS'c:/marmalade/8.1/extensions/s3eamazonads/s3eamazonads.mkf'
p1423
(lp1424
I1
a(dp1425
assS'PVRTexTool'
p1426
(dp1427
S'interface'
p1428
(dp1429
S'c:/marmalade/8.1/extensions/pvrtextool/interface/PVRTexTool_interface.cpp'
p1430
(lp1431
I1
a(dp1432
asS'c:/marmalade/8.1/extensions/pvrtextool/interface/PVRTexTool.defines.txt'
p1433
(lp1434
I1
ag1432
assS'c:/marmalade/8.1/extensions/pvrtextool/pvrtextool.mkf'
p1435
(lp1436
I1
a(dp1437
asS'c:/marmalade/8.1/extensions/pvrtextool/h/PVRTexTool.h'
p1438
(lp1439
I1
ag1432
asssS'(s3e-default)'
p1440
(dp1441
S'c:/marmalade/8.1/s3e/s3e-default.mkf'
p1442
(lp1443
I1
a(dp1444
assS"'Marmalade Studio'"
p1445
(dp1446
S'iw2dscenegraph'
p1447
(dp1448
S'c:/marmalade/8.1/modules/iw2dscenegraph/source/Iw2DSceneGraph.cpp'
p1449
(lp1450
I1
a(dp1451
asS'c:/marmalade/8.1/modules/iw2dscenegraph/iw2dscenegraph.mkf'
p1452
(lp1453
I1
a(dp1454
asS'c:/marmalade/8.1/modules/iw2dscenegraph/docs/iw2dscenegraph.defines.txt'
p1455
(lp1456
I1
ag1451
asS'c:/marmalade/8.1/modules/iw2dscenegraph/h/Iw2DSceneGraph.h'
p1457
(lp1458
I1
ag1451
assS'iwgl'
p1459
(dp1460
S'c:/marmalade/8.1/modules/iwgl/docs/iwgl.config.txt'
p1461
(lp1462
I1
a(dp1463
asS'c:/marmalade/8.1/modules/iwgl/h/IwGL.h'
p1464
(lp1465
I1
ag1463
asS'c:/marmalade/8.1/modules/iwgl/iwgl.mkf'
p1466
(lp1467
I1
a(dp1468
asS'c:/marmalade/8.1/modules/iwgl/h/IwGLExt.h'
p1469
(lp1470
I1
ag1463
assS'iw2d'
p1471
(dp1472
S'c:/marmalade/8.1/modules/iw2d/docs/iw2d_public.defines.txt'
p1473
(lp1474
I1
a(dp1475
asS'c:/marmalade/8.1/modules/iw2d/h/Iw2D.h'
p1476
(lp1477
I1
ag1475
asS'c:/marmalade/8.1/modules/iw2d/docs/iw2d.config.txt'
p1478
(lp1479
I1
ag1475
asS'c:/marmalade/8.1/modules/iw2d/iw2d.mkf'
p1480
(lp1481
I1
a(dp1482
assS'iwgxfont'
p1483
(dp1484
S'c:/marmalade/8.1/modules/iwgxfont/h/IwGxFont.h'
p1485
(lp1486
I1
a(dp1487
asS'c:/marmalade/8.1/modules/iwgxfont/h/IwGxFontPreparedData.h'
p1488
(lp1489
I1
ag1487
asS'c:/marmalade/8.1/modules/iwgxfont/h/IwGxFontContainer.h'
p1490
(lp1491
I1
ag1487
asS'c:/marmalade/8.1/modules/iwgxfont/docs/iwgxfont_public.defines.txt'
p1492
(lp1493
I1
ag1487
asS'c:/marmalade/8.1/modules/iwgxfont/h/IwGxFontGlyph.h'
p1494
(lp1495
I1
ag1487
asS'c:/marmalade/8.1/modules/iwgxfont/h/IwGxFontState.h'
p1496
(lp1497
I1
ag1487
asS'c:/marmalade/8.1/modules/iwgxfont/h/IwGxFontTypes.h'
p1498
(lp1499
I1
ag1487
asS'c:/marmalade/8.1/modules/iwgxfont/iwgxfont.mkf'
p1500
(lp1501
I1
a(dp1502
asS'c:/marmalade/8.1/modules/iwgxfont/docs/iwgxfont.config.txt'
p1503
(lp1504
I1
ag1487
assS'iwgeom'
p1505
(dp1506
S'c:/marmalade/8.1/modules/iwgeom/h/IwGeomSQuat.h'
p1507
(lp1508
I1
a(dp1509
asS'c:/marmalade/8.1/modules/iwgeom/h/IwGeomCore.h'
p1510
(lp1511
I1
ag1509
asS'c:/marmalade/8.1/modules/iwgeom/h/IwGeomMat2D.h'
p1512
(lp1513
I1
ag1509
asS'c:/marmalade/8.1/modules/iwgeom/h/IwGeomFVec2.h'
p1514
(lp1515
I1
ag1509
asS'c:/marmalade/8.1/modules/iwgeom/h/IwGeomMat.h.tpl'
p1516
(lp1517
I1
ag1509
asS'c:/marmalade/8.1/modules/iwgeom/h/IwGeomVec2.h'
p1518
(lp1519
I1
ag1509
asS'c:/marmalade/8.1/modules/iwgeom/h/IwGeomMat2D.h.tpl'
p1520
(lp1521
I1
ag1509
asS'c:/marmalade/8.1/modules/iwgeom/h/IwGeomFPlane.h'
p1522
(lp1523
I1
ag1509
asS'c:/marmalade/8.1/modules/iwgeom/h/IwGeomVec3.h'
p1524
(lp1525
I1
ag1509
asS'c:/marmalade/8.1/modules/iwgeom/h/IwGeomLegacy.h'
p1526
(lp1527
I1
ag1509
asS'c:/marmalade/8.1/modules/iwgeom/h/IwGeomFIntersect.h'
p1528
(lp1529
I1
ag1509
asS'c:/marmalade/8.1/modules/iwgeom/h/IwGeomVec.h'
p1530
(lp1531
I1
ag1509
asS'c:/marmalade/8.1/modules/iwgeom/h/IwGeomVec.h.tpl'
p1532
(lp1533
I1
ag1509
asS'c:/marmalade/8.1/modules/iwgeom/h/IwGeomMenu.h'
p1534
(lp1535
I1
ag1509
asS'c:/marmalade/8.1/modules/iwgeom/h/IwGeomIntersect.h'
p1536
(lp1537
I1
ag1509
asS'c:/marmalade/8.1/modules/iwgeom/h/IwGeomFVec3.h'
p1538
(lp1539
I1
ag1509
asS'c:/marmalade/8.1/modules/iwgeom/h/IwGeomQuat.h'
p1540
(lp1541
I1
ag1509
asS'c:/marmalade/8.1/modules/iwgeom/h/IwGeom.h'
p1542
(lp1543
I1
ag1509
asS'c:/marmalade/8.1/modules/iwgeom/h/IwGeomSphere.h'
p1544
(lp1545
I1
ag1509
asS'c:/marmalade/8.1/modules/iwgeom/h/IwGeomSVec2.h'
p1546
(lp1547
I1
ag1509
asS'c:/marmalade/8.1/modules/iwgeom/h/IwGeomFVec4.h'
p1548
(lp1549
I1
ag1509
asS'c:/marmalade/8.1/modules/iwgeom/h/IwGeomSVec3.h'
p1550
(lp1551
I1
ag1509
asS'c:/marmalade/8.1/modules/iwgeom/h/IwGeomVec4.h'
p1552
(lp1553
I1
ag1509
asS'c:/marmalade/8.1/modules/iwgeom/h/IwGeomFBBox.h'
p1554
(lp1555
I1
ag1509
asS'c:/marmalade/8.1/modules/iwgeom/h/IwGeomBBox.h'
p1556
(lp1557
I1
ag1509
asS'c:/marmalade/8.1/modules/iwgeom/h/IwGeomFMat.h'
p1558
(lp1559
I1
ag1509
asS'c:/marmalade/8.1/modules/iwgeom/h/IwGeomFQuat.h'
p1560
(lp1561
I1
ag1509
asS'c:/marmalade/8.1/modules/iwgeom/h/IwGeomQuat.h.tpl'
p1562
(lp1563
I1
ag1509
asS'c:/marmalade/8.1/modules/iwgeom/h/IwGeomSVec4.h'
p1564
(lp1565
I1
ag1509
asS'c:/marmalade/8.1/modules/iwgeom/docs/iwgeom.config.txt'
p1566
(lp1567
I1
ag1509
asS'c:/marmalade/8.1/modules/iwgeom/h/IwGeomPlane.h'
p1568
(lp1569
I1
ag1509
asS'c:/marmalade/8.1/modules/iwgeom/h/IwGeomMat.h'
p1570
(lp1571
I1
ag1509
asS'c:/marmalade/8.1/modules/iwgeom/iwgeom.mkf'
p1572
(lp1573
I1
a(dp1574
asS'c:/marmalade/8.1/modules/iwgeom/h/IwGeomFSphere.h'
p1575
(lp1576
I1
ag1509
asS'c:/marmalade/8.1/modules/iwgeom/h/IwGeomSqrt.h'
p1577
(lp1578
I1
ag1509
asS'c:/marmalade/8.1/modules/iwgeom/h/IwGeomFMat2D.h'
p1579
(lp1580
I1
ag1509
assS'iwresmanager'
p1581
(dp1582
S'c:/marmalade/8.1/modules/iwresmanager/h/IwResHandlerGROUP.h'
p1583
(lp1584
I1
a(dp1585
asS'c:/marmalade/8.1/modules/iwresmanager/h/IwResHandler.h'
p1586
(lp1587
I1
ag1585
asS'c:/marmalade/8.1/modules/iwresmanager/iwresmanager.mkf'
p1588
(lp1589
I1
a(dp1590
asS'c:/marmalade/8.1/modules/iwresmanager/h/IwResGroup.h'
p1591
(lp1592
I1
ag1585
asS'c:/marmalade/8.1/modules/iwresmanager/h/IwResHandlerImage.h'
p1593
(lp1594
I1
ag1585
asS'c:/marmalade/8.1/modules/iwresmanager/docs/iwresmanager.config.txt'
p1595
(lp1596
I1
ag1585
asS'c:/marmalade/8.1/modules/iwresmanager/h/IwResManagerClass.h'
p1597
(lp1598
I1
ag1585
asS'c:/marmalade/8.1/modules/iwresmanager/h/IwResHandlerITX.h'
p1599
(lp1600
I1
ag1585
asS'c:/marmalade/8.1/modules/iwresmanager/h/IwResSerialise.h'
p1601
(lp1602
I1
ag1585
asS'c:/marmalade/8.1/modules/iwresmanager/h/IwResManager.h'
p1603
(lp1604
I1
ag1585
assS'iwgx'
p1605
(dp1606
S'c:/marmalade/8.1/modules/iwgx/h/IwGxFuncTable.h'
p1607
(lp1608
I1
a(dp1609
asS'c:/marmalade/8.1/modules/iwgx/h/IwGxPrint.h'
p1610
(lp1611
I1
ag1609
asS'c:/marmalade/8.1/modules/iwgx/h/IwTexture.h'
p1612
(lp1613
I1
ag1609
asS'c:/marmalade/8.1/modules/iwgx/h/IwGxSurface.h'
p1614
(lp1615
I1
ag1609
asS'c:/marmalade/8.1/modules/iwgx/docs/iwgx_public.defines.txt'
p1616
(lp1617
I1
ag1609
asS'c:/marmalade/8.1/modules/iwgx/h/IwColour.h'
p1618
(lp1619
I1
ag1609
asS'c:/marmalade/8.1/modules/iwgx/h/IwGxShaderTechnique.h'
p1620
(lp1621
I1
ag1609
asS'c:/marmalade/8.1/modules/iwgx/h/IwClip.inl'
p1622
(lp1623
I1
ag1609
asS'c:/marmalade/8.1/modules/iwgx/h/IwGxDebug.h'
p1624
(lp1625
I1
ag1609
asS'c:/marmalade/8.1/modules/iwgx/h/IwMaterial.h'
p1626
(lp1627
I1
ag1609
asS'c:/marmalade/8.1/modules/iwgx/h/IwDebugPrim.h'
p1628
(lp1629
I1
ag1609
asS'c:/marmalade/8.1/modules/iwgx/h/IwGxMetrics.h'
p1630
(lp1631
I1
ag1609
asS'c:/marmalade/8.1/modules/iwgx/h/IwGxError.h'
p1632
(lp1633
I1
ag1609
asS'c:/marmalade/8.1/modules/iwgx/iwgx.mkf'
p1634
(lp1635
I1
a(dp1636
asS'c:/marmalade/8.1/modules/iwgx/h/IwResHandlerMTL.h'
p1637
(lp1638
I1
ag1609
asS'c:/marmalade/8.1/modules/iwgx/h/IwClip.h'
p1639
(lp1640
I1
ag1609
asS'c:/marmalade/8.1/modules/iwgx/h/IwFColour.h'
p1641
(lp1642
I1
ag1609
asS'c:/marmalade/8.1/modules/iwgx/h/IwGxTypes.h'
p1643
(lp1644
I1
ag1609
asS'c:/marmalade/8.1/modules/iwgx/docs/iwgx.config.txt'
p1645
(lp1646
I1
ag1609
asS'c:/marmalade/8.1/modules/iwgx/h/IwGxState.h'
p1647
(lp1648
I1
ag1609
asS'c:/marmalade/8.1/modules/iwgx/h/IwTPage.h'
p1649
(lp1650
I1
ag1609
asS'c:/marmalade/8.1/modules/iwgx/h/IwGxStream.h'
p1651
(lp1652
I1
ag1609
asS'c:/marmalade/8.1/modules/iwgx/h/IwGx.h'
p1653
(lp1654
I1
ag1609
asS'c:/marmalade/8.1/modules/iwgx/h/IwGxTransformSW.h'
p1655
(lp1656
I1
ag1609
asS'c:/marmalade/8.1/modules/iwgx/h/IwMatAnim.h'
p1657
(lp1658
I1
ag1609
assS'iw2dscenegraphcore'
p1659
(dp1660
S'c:/marmalade/8.1/modules/iw2dscenegraphcore/iw2dscenegraphcore.mkf'
p1661
(lp1662
I1
a(dp1663
asS'c:/marmalade/8.1/modules/iw2dscenegraphcore/h/Iw2DSceneGraphCore.h'
p1664
(lp1665
I1
a(dp1666
asS'c:/marmalade/8.1/modules/iw2dscenegraphcore/source/Iw2DSceneGraphCore.cpp'
p1667
(lp1668
I1
ag1666
assS'iwutil'
p1669
(dp1670
S'c:/marmalade/8.1/modules/iwutil/h/IwOptimiseSize.h'
p1671
(lp1672
I1
a(dp1673
asS'c:/marmalade/8.1/modules/iwutil/h/IwMemBucketHelpers.h'
p1674
(lp1675
I1
ag1673
asS'c:/marmalade/8.1/modules/iwutil/h/IwUTF8.h'
p1676
(lp1677
I1
ag1673
asS'c:/marmalade/8.1/modules/iwutil/h/IwDivide.h'
p1678
(lp1679
I1
ag1673
asS'c:/marmalade/8.1/modules/iwutil/h/IwKeymap.h'
p1680
(lp1681
I1
ag1673
asS'c:/marmalade/8.1/modules/iwutil/h/IwBuffer.h'
p1682
(lp1683
I1
ag1673
asS'c:/marmalade/8.1/modules/iwutil/h/IwAllocator.h'
p1684
(lp1685
I1
ag1673
asS'c:/marmalade/8.1/modules/iwutil/h/IwOptimiseSpeed.h'
p1686
(lp1687
I1
ag1673
asS'c:/marmalade/8.1/modules/iwutil/h/IwCore.h'
p1688
(lp1689
I1
ag1673
asS'c:/marmalade/8.1/modules/iwutil/h/IwArray.h'
p1690
(lp1691
I1
ag1673
asS'c:/marmalade/8.1/modules/iwutil/h/IwResource.h'
p1692
(lp1693
I1
ag1673
asS'c:/marmalade/8.1/modules/iwutil/h/IwFibre.h'
p1694
(lp1695
I1
ag1673
asS'c:/marmalade/8.1/modules/iwutil/h/IwOptimiseThumb.h'
p1696
(lp1697
I1
ag1673
asS'c:/marmalade/8.1/modules/iwutil/h/IwRandom.h'
p1698
(lp1699
I1
ag1673
asS'c:/marmalade/8.1/modules/iwutil/h/IwList.h'
p1700
(lp1701
I1
ag1673
asS'c:/marmalade/8.1/modules/iwutil/iwutil.mkf'
p1702
(lp1703
I1
a(dp1704
asS'c:/marmalade/8.1/modules/iwutil/h/IwMemory.h'
p1705
(lp1706
I1
ag1673
asS'c:/marmalade/8.1/modules/iwutil/h/IwMath.h'
p1707
(lp1708
I1
ag1673
asS'c:/marmalade/8.1/modules/iwutil/h/IwAutoFile.h'
p1709
(lp1710
I1
ag1673
asS'c:/marmalade/8.1/modules/iwutil/h/IwManaged.h'
p1711
(lp1712
I1
ag1673
asS'c:/marmalade/8.1/modules/iwutil/h/IwMenu.h'
p1713
(lp1714
I1
ag1673
asS'c:/marmalade/8.1/modules/iwutil/h/IwChar.h'
p1715
(lp1716
I1
ag1673
asS'c:/marmalade/8.1/modules/iwutil/h/IwEvent.h'
p1717
(lp1718
I1
ag1673
asS'c:/marmalade/8.1/modules/iwutil/h/IwMemManagerDL.h'
p1719
(lp1720
I1
ag1673
asS'c:/marmalade/8.1/modules/iwutil/h/IwCopyingPtr.h'
p1721
(lp1722
I1
ag1673
asS'c:/marmalade/8.1/modules/iwutil/h/IwFile.h'
p1723
(lp1724
I1
ag1673
asS'c:/marmalade/8.1/modules/iwutil/h/IwOptimiseARM.h'
p1725
(lp1726
I1
ag1673
asS'c:/marmalade/8.1/modules/iwutil/h/IwSingleton.h'
p1727
(lp1728
I1
ag1673
asS'c:/marmalade/8.1/modules/iwutil/h/IwMemBucket.h'
p1729
(lp1730
I1
ag1673
asS'c:/marmalade/8.1/modules/iwutil/h/IwTextParseable.h'
p1731
(lp1732
I1
ag1673
asS'c:/marmalade/8.1/modules/iwutil/h/IwImageHelper.h'
p1733
(lp1734
I1
ag1673
asS'c:/marmalade/8.1/modules/iwutil/h/IwString.h'
p1735
(lp1736
I1
ag1673
asS'c:/marmalade/8.1/modules/iwutil/h/IwVariableBitField.h'
p1737
(lp1738
I1
ag1673
asS'c:/marmalade/8.1/modules/iwutil/h/IwTextParserITX.h'
p1739
(lp1740
I1
ag1673
asS'c:/marmalade/8.1/modules/iwutil/h/IwTypes.h'
p1741
(lp1742
I1
ag1673
asS'c:/marmalade/8.1/modules/iwutil/h/IwDebug.h'
p1743
(lp1744
I1
ag1673
asS'c:/marmalade/8.1/modules/iwutil/h/IwHashString.h'
p1745
(lp1746
I1
ag1673
asS'c:/marmalade/8.1/modules/iwutil/h/IwRuntime.h'
p1747
(lp1748
I1
ag1673
asS'c:/marmalade/8.1/modules/iwutil/h/IwImage.h'
p1749
(lp1750
I1
ag1673
asS'c:/marmalade/8.1/modules/iwutil/h/IwUtil.h'
p1751
(lp1752
I1
ag1673
asS'c:/marmalade/8.1/modules/iwutil/docs/iwutil.config.txt'
p1753
(lp1754
I1
ag1673
asS'c:/marmalade/8.1/modules/iwutil/h/IwManagedList.h'
p1755
(lp1756
I1
ag1673
asS'c:/marmalade/8.1/modules/iwutil/h/IwProfileMenu.h'
p1757
(lp1758
I1
ag1673
asS'c:/marmalade/8.1/modules/iwutil/h/IwUncopyable.h'
p1759
(lp1760
I1
ag1673
asS'c:/marmalade/8.1/modules/iwutil/h/IwUtilInitTerm.h'
p1761
(lp1762
I1
ag1673
asS'c:/marmalade/8.1/modules/iwutil/h/IwDivTable.h'
p1763
(lp1764
I1
ag1673
asS'c:/marmalade/8.1/modules/iwutil/h/IwSerialise.h'
p1765
(lp1766
I1
ag1673
asS'c:/marmalade/8.1/modules/iwutil/h/IwPath.h'
p1767
(lp1768
I1
ag1673
asS'c:/marmalade/8.1/modules/iwutil/h/IwClassFactory.h'
p1769
(lp1770
I1
ag1673
asS'c:/marmalade/8.1/modules/iwutil/h/IwTextParser.h'
p1771
(lp1772
I1
ag1673
asssS'(zlib)'
p1773
(dp1774
g1329
(dp1775
S'c:/marmalade/8.1/modules/third_party/zlib/h/zconf.h'
p1776
(lp1777
I1
a(dp1778
asS'c:/marmalade/8.1/modules/third_party/zlib/h/zlib.h'
p1779
(lp1780
I1
ag1778
assS'c:/marmalade/8.1/modules/third_party/zlib/zlib.mkf'
p1781
(lp1782
I1
a(dp1783
assS'(iwtween)'
p1784
(dp1785
S'c:/marmalade/8.1/modules/iwtween/iwtween.mkf'
p1786
(lp1787
I1
a(dp1788
asS'c:/marmalade/8.1/modules/iwtween/source/IwTween.cpp'
p1789
(lp1790
I1
a(dp1791
asS'c:/marmalade/8.1/modules/iwtween/h/IwTween.h'
p1792
(lp1793
I1
ag1791
assS'ControllerClasses'
p1794
(dp1795
S'c:/Users/conor/Documents/WorldGrid/Github/ControllerClasses/OnScreenController.cpp'
p1796
(lp1797
I1
ag1358
asS'c:/Users/conor/Documents/WorldGrid/Github/ControllerClasses/CInput.cpp'
p1798
(lp1799
I1
ag1358
asS'c:/Users/conor/Documents/WorldGrid/Github/ControllerClasses/ControllerManager.cpp'
p1800
(lp1801
I1
ag1358
asS'c:/Users/conor/Documents/WorldGrid/Github/ControllerClasses/NonPhysicalControllerInterface.h'
p1802
(lp1803
I1
ag1358
asS'c:/Users/conor/Documents/WorldGrid/Github/ControllerClasses/GestureController.h'
p1804
(lp1805
I1
ag1358
asS'c:/Users/conor/Documents/WorldGrid/Github/ControllerClasses/OnScreenController.h'
p1806
(lp1807
I1
ag1358
asS'c:/Users/conor/Documents/WorldGrid/Github/ControllerClasses/ControllerInterface.h'
p1808
(lp1809
I1
ag1358
asS'c:/Users/conor/Documents/WorldGrid/Github/ControllerClasses/CInput.h'
p1810
(lp1811
I1
ag1358
asS'c:/Users/conor/Documents/WorldGrid/Github/ControllerClasses/MobileController.h'
p1812
(lp1813
I1
ag1358
asS'c:/Users/conor/Documents/WorldGrid/Github/ControllerClasses/HidController.cpp'
p1814
(lp1815
I1
ag1358
asS'c:/Users/conor/Documents/WorldGrid/Github/ControllerClasses/ControllerManager.h'
p1816
(lp1817
I1
ag1358
asS'c:/Users/conor/Documents/WorldGrid/Github/ControllerClasses/InputManager.h'
p1818
(lp1819
I1
ag1358
asS'c:/Users/conor/Documents/WorldGrid/Github/ControllerClasses/HidController.h'
p1820
(lp1821
I1
ag1358
asS'c:/Users/conor/Documents/WorldGrid/Github/ControllerClasses/MobileController.cpp'
p1822
(lp1823
I1
ag1358
asS'c:/Users/conor/Documents/WorldGrid/Github/ControllerClasses/PhysicalControllerInterface.h'
p1824
(lp1825
I1
ag1358
asS'c:/Users/conor/Documents/WorldGrid/Github/ControllerClasses/InputManager.cpp'
p1826
(lp1827
I1
ag1358
asS'c:/Users/conor/Documents/WorldGrid/Github/ControllerClasses/GestureController.cpp'
p1828
(lp1829
I1
ag1358
assS'(libjpeg)'
p1830
(dp1831
g1329
(dp1832
S'c:/marmalade/8.1/modules/third_party/libjpeg/h/jinclude.h'
p1833
(lp1834
I1
a(dp1835
asS'c:/marmalade/8.1/modules/third_party/libjpeg/h/jconfig.h'
p1836
(lp1837
I1
ag1835
asS'c:/marmalade/8.1/modules/third_party/libjpeg/h/jchuff.h'
p1838
(lp1839
I1
ag1835
asS'c:/marmalade/8.1/modules/third_party/libjpeg/h/cdjpeg.h'
p1840
(lp1841
I1
ag1835
asS'c:/marmalade/8.1/modules/third_party/libjpeg/h/jpegint.h'
p1842
(lp1843
I1
ag1835
asS'c:/marmalade/8.1/modules/third_party/libjpeg/h/transupp.h'
p1844
(lp1845
I1
ag1835
asS'c:/marmalade/8.1/modules/third_party/libjpeg/h/jpeglib.h'
p1846
(lp1847
I1
ag1835
asS'c:/marmalade/8.1/modules/third_party/libjpeg/h/jversion.h'
p1848
(lp1849
I1
ag1835
asS'c:/marmalade/8.1/modules/third_party/libjpeg/h/jdct.h'
p1850
(lp1851
I1
ag1835
asS'c:/marmalade/8.1/modules/third_party/libjpeg/h/jdhuff.h'
p1852
(lp1853
I1
ag1835
asS'c:/marmalade/8.1/modules/third_party/libjpeg/h/jmemsys.h'
p1854
(lp1855
I1
ag1835
asS'c:/marmalade/8.1/modules/third_party/libjpeg/h/jmorecfg.h'
p1856
(lp1857
I1
ag1835
asS'c:/marmalade/8.1/modules/third_party/libjpeg/h/jerror.h'
p1858
(lp1859
I1
ag1835
asS'c:/marmalade/8.1/modules/third_party/libjpeg/h/cderror.h'
p1860
(lp1861
I1
ag1835
assS'c:/marmalade/8.1/modules/third_party/libjpeg/libjpeg.mkf'
p1862
(lp1863
I1
a(dp1864
asssS'files'
p1865
(dp1866
S'IwGxFontPreparedData.h'
p1867
g394
(cmkb_main
File
p1868
g396
Ntp1869
Rp1870
(dp1871
S'flags'
p1872
g1487
sS'group'
p1873
(lp1874
S"'Marmalade Studio'"
p1875
ag1483
asg420
g1488
sbsS'iterator'
p1876
g394
(g1868
g396
Ntp1877
Rp1878
(dp1879
g1872
(dp1880
sg1873
(lp1881
S"'Marmalade System (S3E)'"
p1882
aS'stdc headers'
p1883
aS'c++'
p1884
asg420
S'c:/marmalade/8.1/s3e/h/std/c++/iterator'
p1885
sbsS'IwGL.h'
p1886
g394
(g1868
g396
Ntp1887
Rp1888
(dp1889
g1872
g1463
sg1873
(lp1890
S"'Marmalade Studio'"
p1891
ag1459
asg420
g1464
sbsS's3e.h'
p1892
g394
(g1868
g396
Ntp1893
Rp1894
(dp1895
g1872
g1880
sg1873
(lp1896
g1882
asg420
S'c:/marmalade/8.1/s3e/h/s3e.h'
p1897
sbsS'errno.h'
p1898
g394
(g1868
g396
Ntp1899
Rp1900
(dp1901
g1872
g1880
sg1873
(lp1902
g1882
aS'stdc headers'
p1903
asg420
S'c:/marmalade/8.1/s3e/h/std/errno.h'
p1904
sbsS'IwSingleton.h'
p1905
g394
(g1868
g396
Ntp1906
Rp1907
(dp1908
g1872
g1673
sg1873
(lp1909
S"'Marmalade Studio'"
p1910
ag1669
asg420
g1727
sbsS'dlfcn.h'
p1911
g394
(g1868
g396
Ntp1912
Rp1913
(dp1914
g1872
g1880
sg1873
g1902
sg420
S'c:/marmalade/8.1/s3e/h/std/dlfcn.h'
p1915
sbsS'stdio_streambuf'
p1916
g394
(g1868
g396
Ntp1917
Rp1918
(dp1919
g1872
g1880
sg1873
g1881
sg420
S'c:/marmalade/8.1/s3e/h/std/c++/stdio_streambuf'
p1920
sbsS'sched.h'
p1921
g394
(g1868
g396
Ntp1922
Rp1923
(dp1924
g1872
g1880
sg1873
g1902
sg420
S'c:/marmalade/8.1/s3e/h/std/sched.h'
p1925
sbsS'IwGeomFMat2D.h'
p1926
g394
(g1868
g396
Ntp1927
Rp1928
(dp1929
g1872
g1509
sg1873
(lp1930
S"'Marmalade Studio'"
p1931
ag1505
asg420
g1579
sbsS'cassert'
p1932
g394
(g1868
g396
Ntp1933
Rp1934
(dp1935
g1872
g1880
sg1873
g1881
sg420
S'c:/marmalade/8.1/s3e/h/std/c++/cassert'
p1936
sbsS'grp.h'
p1937
g394
(g1868
g396
Ntp1938
Rp1939
(dp1940
g1872
g1880
sg1873
g1902
sg420
S'c:/marmalade/8.1/s3e/h/std/grp.h'
p1941
sbsS'list'
p1942
g394
(g1868
g396
Ntp1943
Rp1944
(dp1945
g1872
g1880
sg1873
g1881
sg420
S'c:/marmalade/8.1/s3e/h/std/c++/list'
p1946
sbsS'IwGeomMat.h.tpl'
p1947
g394
(g1868
g396
Ntp1948
Rp1949
(dp1950
g1872
g1509
sg1873
g1930
sg420
g1516
sbsS'istream'
p1951
g394
(g1868
g396
Ntp1952
Rp1953
(dp1954
g1872
g1880
sg1873
g1881
sg420
S'c:/marmalade/8.1/s3e/h/std/c++/istream'
p1955
sbsS'jpeglib.h'
p1956
g394
(g1868
g396
Ntp1957
Rp1958
(dp1959
g1872
g1835
sg1873
(lp1960
g1830
ag1329
asg420
g1846
sbsS'iw2d_public.defines.txt'
p1961
g394
(g1868
g396
Ntp1962
Rp1963
(dp1964
g1872
g1475
sg1873
(lp1965
S"'Marmalade Studio'"
p1966
ag1471
asg420
g1473
sbsS'iostream.h'
p1967
g394
(g1868
g396
Ntp1968
Rp1969
(dp1970
g1872
g1880
sg1873
g1881
sg420
S'c:/marmalade/8.1/s3e/h/std/c++/iostream.h'
p1971
sbsS'string'
p1972
g394
(g1868
g396
Ntp1973
Rp1974
(dp1975
g1872
g1880
sg1873
g1881
sg420
S'c:/marmalade/8.1/s3e/h/std/c++/string'
p1976
sbsS'IwMemory.h'
p1977
g394
(g1868
g396
Ntp1978
Rp1979
(dp1980
g1872
g1673
sg1873
g1909
sg420
g1705
sbsS'IwGeomPlane.h'
p1981
g394
(g1868
g396
Ntp1982
Rp1983
(dp1984
g1872
g1509
sg1873
g1930
sg420
g1568
sbsS'iw2d.config.txt'
p1985
g394
(g1868
g396
Ntp1986
Rp1987
(dp1988
g1872
g1475
sg1873
g1965
sg420
g1478
sbsS'iomanip'
p1989
g394
(g1868
g396
Ntp1990
Rp1991
(dp1992
g1872
g1880
sg1873
g1881
sg420
S'c:/marmalade/8.1/s3e/h/std/c++/iomanip'
p1993
sbsS'streambuf.h'
p1994
g394
(g1868
g396
Ntp1995
Rp1996
(dp1997
g1872
g1880
sg1873
g1881
sg420
S'c:/marmalade/8.1/s3e/h/std/c++/streambuf.h'
p1998
sbsS'iwgeom.mkf'
p1999
g394
(g1868
g396
Ntp2000
Rp2001
(dp2002
g1872
g1574
sg1873
g1930
sg420
g1572
sbsS'IwGxError.h'
p2003
g394
(g1868
g396
Ntp2004
Rp2005
(dp2006
g1872
g1609
sg1873
(lp2007
g1445
ag1605
asg420
g1632
sbsS'IwGeom.h'
p2008
g394
(g1868
g396
Ntp2009
Rp2010
(dp2011
g1872
g1509
sg1873
g1930
sg420
g1542
sbsS'IwGeomVec4.h'
p2012
g394
(g1868
g396
Ntp2013
Rp2014
(dp2015
g1872
g1509
sg1873
g1930
sg420
g1552
sbsS'dir.h'
p2016
g394
(g1868
g396
Ntp2017
Rp2018
(dp2019
g1872
g1880
sg1873
(lp2020
g1882
aS'stdc headers'
p2021
aS'sys'
p2022
asg420
S'c:/marmalade/8.1/s3e/h/std/sys/dir.h'
p2023
sbsS'locale.h'
p2024
g394
(g1868
g396
Ntp2025
Rp2026
(dp2027
g1872
g1880
sg1873
g1902
sg420
S'c:/marmalade/8.1/s3e/h/std/locale.h'
p2028
sbsS'vector'
p2029
g394
(g1868
g396
Ntp2030
Rp2031
(dp2032
g1872
g1880
sg1873
g1881
sg420
S'c:/marmalade/8.1/s3e/h/std/c++/vector'
p2033
sbsS'IwManaged.h'
p2034
g394
(g1868
g396
Ntp2035
Rp2036
(dp2037
g1872
g1673
sg1873
g1909
sg420
g1711
sbsS's3eCompass.h'
p2038
g394
(g1868
g396
Ntp2039
Rp2040
(dp2041
g1872
g1880
sg1873
g1896
sg420
S'c:/marmalade/8.1/s3e/h/s3eCompass.h'
p2042
sbsS'cderror.h'
p2043
g394
(g1868
g396
Ntp2044
Rp2045
(dp2046
g1872
g1835
sg1873
g1960
sg420
g1860
sbsS'climits'
p2047
g394
(g1868
g396
Ntp2048
Rp2049
(dp2050
g1872
g1880
sg1873
g1881
sg420
S'c:/marmalade/8.1/s3e/h/std/c++/climits'
p2051
sbsS's3eVibra.h'
p2052
g394
(g1868
g396
Ntp2053
Rp2054
(dp2055
g1872
g1880
sg1873
g1896
sg420
S'c:/marmalade/8.1/s3e/h/s3eVibra.h'
p2056
sbsS'jversion.h'
p2057
g394
(g1868
g396
Ntp2058
Rp2059
(dp2060
g1872
g1835
sg1873
g1960
sg420
g1848
sbsS'fnmatch.h'
p2061
g394
(g1868
g396
Ntp2062
Rp2063
(dp2064
g1872
g1880
sg1873
g1902
sg420
S'c:/marmalade/8.1/s3e/h/std/fnmatch.h'
p2065
sbsS'IwGxState.h'
p2066
g394
(g1868
g396
Ntp2067
Rp2068
(dp2069
g1872
g1609
sg1873
g2007
sg420
g1647
sbsS's3eAudio.h'
p2070
g394
(g1868
g396
Ntp2071
Rp2072
(dp2073
g1872
g1880
sg1873
g1896
sg420
S'c:/marmalade/8.1/s3e/h/s3eAudio.h'
p2074
sbsS's3eSurface.h'
p2075
g394
(g1868
g396
Ntp2076
Rp2077
(dp2078
g1872
g1880
sg1873
g1896
sg420
S'c:/marmalade/8.1/s3e/h/s3eSurface.h'
p2079
sbsS'new'
p2080
g394
(g1868
g396
Ntp2081
Rp2082
(dp2083
g1872
g1880
sg1873
g1881
sg420
S'c:/marmalade/8.1/s3e/h/std/c++/new'
p2084
sbsS's3eWindow.h'
p2085
g394
(g1868
g396
Ntp2086
Rp2087
(dp2088
g1872
g1880
sg1873
(lp2089
g1882
aS'Extensions'
p2090
asg420
S'c:/marmalade/8.1/s3e/h/ext/s3eWindow.h'
p2091
sbsS'IwBuffer.h'
p2092
g394
(g1868
g396
Ntp2093
Rp2094
(dp2095
g1872
g1673
sg1873
g1909
sg420
g1682
sbsS'WorldGrid.h'
p2096
g394
(g1868
g396
Ntp2097
Rp2098
(dp2099
g1872
g1358
sg1873
(lp2100
g1354
asg420
g1369
sbsS'IwGeomQuat.h.tpl'
p2101
g394
(g1868
g396
Ntp2102
Rp2103
(dp2104
g1872
g1509
sg1873
g1930
sg420
g1562
sbsS's3eOSExec.h'
p2105
g394
(g1868
g396
Ntp2106
Rp2107
(dp2108
g1872
g1880
sg1873
g2089
sg420
S'c:/marmalade/8.1/s3e/h/ext/s3eOSExec.h'
p2109
sbsS'IwGxTransformSW.h'
p2110
g394
(g1868
g396
Ntp2111
Rp2112
(dp2113
g1872
g1609
sg1873
g2007
sg420
g1655
sbsS'IwGxMetrics.h'
p2114
g394
(g1868
g396
Ntp2115
Rp2116
(dp2117
g1872
g1609
sg1873
g2007
sg420
g1630
sbsS'iwgxfont.config.txt'
p2118
g394
(g1868
g396
Ntp2119
Rp2120
(dp2121
g1872
g1487
sg1873
g1874
sg420
g1503
sbsS'gl2platform.h'
p2122
g394
(g1868
g396
Ntp2123
Rp2124
(dp2125
g1872
g1880
sg1873
(lp2126
g1882
aS'GL'
p2127
aS'GLES 2.0'
p2128
asg420
S'c:/marmalade/8.1/s3e/h/GLES2/gl2platform.h'
p2129
sbsS'iw2dscenegraph.defines.txt'
p2130
g394
(g1868
g396
Ntp2131
Rp2132
(dp2133
g1872
g1451
sg1873
(lp2134
S"'Marmalade Studio'"
p2135
ag1447
asg420
g1455
sbsS'queue'
p2136
g394
(g1868
g396
Ntp2137
Rp2138
(dp2139
g1872
g1880
sg1873
g1881
sg420
S'c:/marmalade/8.1/s3e/h/std/c++/queue'
p2140
sbsS'time_1.h'
p2141
g394
(g1868
g396
Ntp2142
Rp2143
(dp2144
g1872
g1880
sg1873
g2020
sg420
S'c:/marmalade/8.1/s3e/h/std/sys/time.h'
p2145
sbsS'Iw2D.h'
p2146
g394
(g1868
g396
Ntp2147
Rp2148
(dp2149
g1872
g1475
sg1873
g1965
sg420
g1476
sbsS'IwGeomVec2.h'
p2150
g394
(g1868
g396
Ntp2151
Rp2152
(dp2153
g1872
g1509
sg1873
g1930
sg420
g1518
sbsS'sendfile.h'
p2154
g394
(g1868
g396
Ntp2155
Rp2156
(dp2157
g1872
g1880
sg1873
g2020
sg420
S'c:/marmalade/8.1/s3e/h/std/sys/sendfile.h'
p2158
sbsS'malloc.h'
p2159
g394
(g1868
g396
Ntp2160
Rp2161
(dp2162
g1872
g1880
sg1873
g1902
sg420
S'c:/marmalade/8.1/s3e/h/std/malloc.h'
p2163
sbsS'stdarg.h'
p2164
g394
(g1868
g396
Ntp2165
Rp2166
(dp2167
g1872
g1880
sg1873
g1902
sg420
S'c:/marmalade/8.1/s3e/h/std/stdarg.h'
p2168
sbsS'IwGeomCore.h'
p2169
g394
(g1868
g396
Ntp2170
Rp2171
(dp2172
g1872
g1509
sg1873
g1930
sg420
g1510
sbsS'Iw2DSceneGraph.h'
p2173
g394
(g1868
g396
Ntp2174
Rp2175
(dp2176
g1872
g1451
sg1873
g2134
sg420
g1457
sbsS'endian.h'
p2177
g394
(g1868
g396
Ntp2178
Rp2179
(dp2180
g1872
g1880
sg1873
g1902
sg420
S'c:/marmalade/8.1/s3e/h/std/endian.h'
p2181
sbsS'gl3ext.h'
p2182
g394
(g1868
g396
Ntp2183
Rp2184
(dp2185
g1872
g1880
sg1873
(lp2186
g1882
aS'GL'
p2187
aS'GLES 3.0'
p2188
asg420
S'c:/marmalade/8.1/s3e/h/GLES3/gl3ext.h'
p2189
sbsS'glob.h'
p2190
g394
(g1868
g396
Ntp2191
Rp2192
(dp2193
g1872
g1880
sg1873
g1902
sg420
S'c:/marmalade/8.1/s3e/h/std/glob.h'
p2194
sbsS'fstream'
p2195
g394
(g1868
g396
Ntp2196
Rp2197
(dp2198
g1872
g1880
sg1873
g1881
sg420
S'c:/marmalade/8.1/s3e/h/std/c++/fstream'
p2199
sbsS's3eCamera.h'
p2200
g394
(g1868
g396
Ntp2201
Rp2202
(dp2203
g1872
g1880
sg1873
g1896
sg420
S'c:/marmalade/8.1/s3e/h/s3eCamera.h'
p2204
sbsS'ControllerInterface.h'
p2205
g394
(g1868
g396
Ntp2206
Rp2207
(dp2208
g1872
g1358
sg1873
(lp2209
g1794
asg420
g1808
sbsS'jconfig.h'
p2210
g394
(g1868
g396
Ntp2211
Rp2212
(dp2213
g1872
g1835
sg1873
g1960
sg420
g1836
sbsS'memory'
p2214
g394
(g1868
g396
Ntp2215
Rp2216
(dp2217
g1872
g1880
sg1873
g1881
sg420
S'c:/marmalade/8.1/s3e/h/std/c++/memory'
p2218
sbsS'egl.h'
p2219
g394
(g1868
g396
Ntp2220
Rp2221
(dp2222
g1872
g1880
sg1873
(lp2223
g1882
aS'GL'
p2224
aS'EGL'
p2225
asg420
S'c:/marmalade/8.1/s3e/h/EGL/egl.h'
p2226
sbsS'egl_1.h'
p2227
g394
(g1868
g396
Ntp2228
Rp2229
(dp2230
g1872
g1880
sg1873
(lp2231
g1882
aS'GL'
p2232
aS'GLES 1.x'
p2233
asg420
S'c:/marmalade/8.1/s3e/h/GLES/egl.h'
p2234
sbsS'IwMemManagerDL.h'
p2235
g394
(g1868
g396
Ntp2236
Rp2237
(dp2238
g1872
g1673
sg1873
g1909
sg420
g1719
sbsS'deque'
p2239
g394
(g1868
g396
Ntp2240
Rp2241
(dp2242
g1872
g1880
sg1873
g1881
sg420
S'c:/marmalade/8.1/s3e/h/std/c++/deque'
p2243
sbsS'IwString.h'
p2244
g394
(g1868
g396
Ntp2245
Rp2246
(dp2247
g1872
g1673
sg1873
g1909
sg420
g1735
sbsS'cwchar'
p2248
g394
(g1868
g396
Ntp2249
Rp2250
(dp2251
g1872
g1880
sg1873
g1881
sg420
S'c:/marmalade/8.1/s3e/h/std/c++/cwchar'
p2252
sbsS'iwutil.mkf'
p2253
g394
(g1868
g396
Ntp2254
Rp2255
(dp2256
g1872
g1704
sg1873
g1909
sg420
g1702
sbsS'csignal'
p2257
g394
(g1868
g396
Ntp2258
Rp2259
(dp2260
g1872
g1880
sg1873
g1881
sg420
S'c:/marmalade/8.1/s3e/h/std/c++/csignal'
p2261
sbsS'pthread_types.h'
p2262
g394
(g1868
g396
Ntp2263
Rp2264
(dp2265
g1872
g1880
sg1873
g1902
sg420
S'c:/marmalade/8.1/s3e/h/std/pthread_types.h'
p2266
sbsS'pthread_alloc'
p2267
g394
(g1868
g396
Ntp2268
Rp2269
(dp2270
g1872
g1880
sg1873
g1881
sg420
S'c:/marmalade/8.1/s3e/h/std/c++/pthread_alloc'
p2271
sbsS'getopt.h'
p2272
g394
(g1868
g396
Ntp2273
Rp2274
(dp2275
g1872
g1880
sg1873
g1902
sg420
S'c:/marmalade/8.1/s3e/h/std/getopt.h'
p2276
sbsS'IwOptimiseARM.h'
p2277
g394
(g1868
g396
Ntp2278
Rp2279
(dp2280
g1872
g1673
sg1873
g1909
sg420
g1725
sbsS'times.h'
p2281
g394
(g1868
g396
Ntp2282
Rp2283
(dp2284
g1872
g1880
sg1873
g2020
sg420
S'c:/marmalade/8.1/s3e/h/std/sys/times.h'
p2285
sbsS'IwGeomFSphere.h'
p2286
g394
(g1868
g396
Ntp2287
Rp2288
(dp2289
g1872
g1509
sg1873
g1930
sg420
g1575
sbsS'amazon-ads-android-sdk.mkf'
p2290
g394
(g1868
g396
Ntp2291
Rp2292
(dp2293
g1872
g1343
sg1873
(lp2294
g1339
asg420
g1341
sbsS'CInput.h'
p2295
g394
(g1868
g396
Ntp2296
Rp2297
(dp2298
g1872
g1358
sg1873
g2209
sg420
g1810
sbsS'IwTypes.h'
p2299
g394
(g1868
g396
Ntp2300
Rp2301
(dp2302
g1872
g1673
sg1873
g1909
sg420
g1741
sbsS'unistd.h'
p2303
g394
(g1868
g396
Ntp2304
Rp2305
(dp2306
g1872
g1880
sg1873
g1902
sg420
S'c:/marmalade/8.1/s3e/h/std/unistd.h'
p2307
sbsS's3eCompression.h'
p2308
g394
(g1868
g396
Ntp2309
Rp2310
(dp2311
g1872
g1880
sg1873
g1896
sg420
S'c:/marmalade/8.1/s3e/h/s3eCompression.h'
p2312
sbsS'langinfo.h'
p2313
g394
(g1868
g396
Ntp2314
Rp2315
(dp2316
g1872
g1880
sg1873
g1902
sg420
S'c:/marmalade/8.1/s3e/h/std/langinfo.h'
p2317
sbsS's3edebugHeap.h'
p2318
g394
(g1868
g396
Ntp2319
Rp2320
(dp2321
g1872
g1880
sg1873
g2089
sg420
S'c:/marmalade/8.1/s3e/h/ext/s3edebugHeap.h'
p2322
sbsS'AirplayVersion.h'
p2323
g394
(g1868
g396
Ntp2324
Rp2325
(dp2326
g1872
g1880
sg1873
g1896
sg420
S'c:/marmalade/8.1/s3e/h/AirplayVersion.h'
p2327
sbsS'gl2extimg.h'
p2328
g394
(g1868
g396
Ntp2329
Rp2330
(dp2331
g1872
g1880
sg1873
g2126
sg420
S'c:/marmalade/8.1/s3e/h/GLES2/gl2extimg.h'
p2332
sbsS'app.config.txt'
p2333
g394
(g1868
g396
Ntp2334
Rp2335
(dp2336
g1872
(dp2337
sg1873
g4
sg420
S'c:/Users/conor/Documents/WorldGrid/Github/data/app.config.txt'
p2338
sbsS'IwGeomSqrt.h'
p2339
g394
(g1868
g396
Ntp2340
Rp2341
(dp2342
g1872
g1509
sg1873
g1930
sg420
g1577
sbsS'tiniconv_int.h'
p2343
g394
(g1868
g396
Ntp2344
Rp2345
(dp2346
g1872
g1348
sg1873
(lp2347
g1344
asg420
g1349
sbsS'syslog.h'
p2348
g394
(g1868
g396
Ntp2349
Rp2350
(dp2351
g1872
g1880
sg1873
g1902
sg420
S'c:/marmalade/8.1/s3e/h/std/syslog.h'
p2352
sbsS'IwGxFontTypes.h'
p2353
g394
(g1868
g396
Ntp2354
Rp2355
(dp2356
g1872
g1487
sg1873
g1874
sg420
g1498
sbsS'IwGeomFIntersect.h'
p2357
g394
(g1868
g396
Ntp2358
Rp2359
(dp2360
g1872
g1509
sg1873
g1930
sg420
g1528
sbsS'hash_map'
p2361
g394
(g1868
g396
Ntp2362
Rp2363
(dp2364
g1872
g1880
sg1873
g1881
sg420
S'c:/marmalade/8.1/s3e/h/std/c++/hash_map'
p2365
sbsS's3e.mkf'
p2366
g394
(g1868
g396
Ntp2367
Rp2368
(dp2369
g1872
(dp2370
sg1873
g1896
sg420
S'c:/marmalade/8.1/s3e/s3e.mkf'
p2371
sbsS'IwGeomMat2D.h.tpl'
p2372
g394
(g1868
g396
Ntp2373
Rp2374
(dp2375
g1872
g1509
sg1873
g1930
sg420
g1520
sbsS's3eOSReadString.h'
p2376
g394
(g1868
g396
Ntp2377
Rp2378
(dp2379
g1872
g1880
sg1873
g2089
sg420
S'c:/marmalade/8.1/s3e/h/ext/s3eOSReadString.h'
p2380
sbsS'map'
p2381
g394
(g1868
g396
Ntp2382
Rp2383
(dp2384
g1872
g1880
sg1873
g1881
sg420
S'c:/marmalade/8.1/s3e/h/std/c++/map'
p2385
sbsS'iwtween.mkf'
p2386
g394
(g1868
g396
Ntp2387
Rp2388
(dp2389
g1872
g1788
sg1873
(lp2390
g1784
asg420
g1786
sbsS'IwOptimiseSpeed.h'
p2391
g394
(g1868
g396
Ntp2392
Rp2393
(dp2394
g1872
g1673
sg1873
g1909
sg420
g1686
sbsS'msl_string.h'
p2395
g394
(g1868
g396
Ntp2396
Rp2397
(dp2398
g1872
g1880
sg1873
g1881
sg420
S'c:/marmalade/8.1/s3e/h/std/c++/msl_string.h'
p2399
sbsS'select.h'
p2400
g394
(g1868
g396
Ntp2401
Rp2402
(dp2403
g1872
g1880
sg1873
g2020
sg420
S'c:/marmalade/8.1/s3e/h/std/sys/select.h'
p2404
sbsS'zlib.mkf'
p2405
g394
(g1868
g396
Ntp2406
Rp2407
(dp2408
g1872
g1783
sg1873
(lp2409
g1773
asg420
g1781
sbsS'signal.h'
p2410
g394
(g1868
g396
Ntp2411
Rp2412
(dp2413
g1872
g1880
sg1873
g1902
sg420
S'c:/marmalade/8.1/s3e/h/std/signal.h'
p2414
sbsS'sigcontext.h'
p2415
g394
(g1868
g396
Ntp2416
Rp2417
(dp2418
g1872
g1880
sg1873
g1902
sg420
S'c:/marmalade/8.1/s3e/h/std/sigcontext.h'
p2419
sbsS'libpng.mkf'
p2420
g394
(g1868
g396
Ntp2421
Rp2422
(dp2423
g1872
g1338
sg1873
(lp2424
g1327
asg420
g1336
sbsS's3eClipboard.h'
p2425
g394
(g1868
g396
Ntp2426
Rp2427
(dp2428
g1872
g1880
sg1873
g1896
sg420
S'c:/marmalade/8.1/s3e/h/s3eClipboard.h'
p2429
sbsS'IwGxFuncTable.h'
p2430
g394
(g1868
g396
Ntp2431
Rp2432
(dp2433
g1872
g1609
sg1873
g2007
sg420
g1607
sbsS'IwResHandlerGROUP.h'
p2434
g394
(g1868
g396
Ntp2435
Rp2436
(dp2437
g1872
g1585
sg1873
(lp2438
S"'Marmalade Studio'"
p2439
ag1581
asg420
g1583
sbsS's3eDebug.h'
p2440
g394
(g1868
g396
Ntp2441
Rp2442
(dp2443
g1872
g1880
sg1873
g1896
sg420
S'c:/marmalade/8.1/s3e/h/s3eDebug.h'
p2444
sbsS'socket.h'
p2445
g394
(g1868
g396
Ntp2446
Rp2447
(dp2448
g1872
g1880
sg1873
g2020
sg420
S'c:/marmalade/8.1/s3e/h/std/sys/socket.h'
p2449
sbsS'glext.h'
p2450
g394
(g1868
g396
Ntp2451
Rp2452
(dp2453
g1872
g1880
sg1873
g2231
sg420
S'c:/marmalade/8.1/s3e/h/GLES/glext.h'
p2454
sbsS'typeinfo.h'
p2455
g394
(g1868
g396
Ntp2456
Rp2457
(dp2458
g1872
g1880
sg1873
g1881
sg420
S'c:/marmalade/8.1/s3e/h/std/c++/typeinfo.h'
p2459
sbsS'OnScreenController.cpp'
p2460
g394
(g1868
g396
Ntp2461
Rp2462
(dp2463
g1872
g1358
sg1873
g2209
sg420
g1796
sbsS'NonPhysicalControllerInterface.h'
p2464
g394
(g1868
g396
Ntp2465
Rp2466
(dp2467
g1872
g1358
sg1873
g2209
sg420
g1802
sbsS'typeinfo'
p2468
g394
(g1868
g396
Ntp2469
Rp2470
(dp2471
g1872
g1880
sg1873
g1881
sg420
S'c:/marmalade/8.1/s3e/h/std/c++/typeinfo'
p2472
sbsS'fstream.h'
p2473
g394
(g1868
g396
Ntp2474
Rp2475
(dp2476
g1872
g1880
sg1873
g1881
sg420
S'c:/marmalade/8.1/s3e/h/std/c++/fstream.h'
p2477
sbsS's3ePointer.h'
p2478
g394
(g1868
g396
Ntp2479
Rp2480
(dp2481
g1872
g1880
sg1873
g1896
sg420
S'c:/marmalade/8.1/s3e/h/s3ePointer.h'
p2482
sbsS'iw2d.mkf'
p2483
g394
(g1868
g396
Ntp2484
Rp2485
(dp2486
g1872
g1482
sg1873
g1965
sg420
g1480
sbsS'PVRTexTool.h'
p2487
g394
(g1868
g396
Ntp2488
Rp2489
(dp2490
g1872
g1432
sg1873
(lp2491
S'Extensions'
p2492
ag1426
asg420
g1438
sbsS's3eGL.h'
p2493
g394
(g1868
g396
Ntp2494
Rp2495
(dp2496
g1872
g1880
sg1873
g1896
sg420
S'c:/marmalade/8.1/s3e/h/s3eGL.h'
p2497
sbsS'Scene.h'
p2498
g394
(g1868
g396
Ntp2499
Rp2500
(dp2501
g1872
g1358
sg1873
g2100
sg420
g1356
sbsS'IwGeomFVec2.h'
p2502
g394
(g1868
g396
Ntp2503
Rp2504
(dp2505
g1872
g1509
sg1873
g1930
sg420
g1514
sbsS'IwGeomSVec4.h'
p2506
g394
(g1868
g396
Ntp2507
Rp2508
(dp2509
g1872
g1509
sg1873
g1930
sg420
g1564
sbsS'poll.h'
p2510
g394
(g1868
g396
Ntp2511
Rp2512
(dp2513
g1872
g1880
sg1873
g1902
sg420
S'c:/marmalade/8.1/s3e/h/std/poll.h'
p2514
sbsS'IwMatAnim.h'
p2515
g394
(g1868
g396
Ntp2516
Rp2517
(dp2518
g1872
g1609
sg1873
g2007
sg420
g1657
sbsS'PVRTexTool.defines.txt'
p2519
g394
(g1868
g396
Ntp2520
Rp2521
(dp2522
g1872
g1432
sg1873
(lp2523
g2492
ag1426
ag1428
asg420
g1433
sbsS'IwGx.h'
p2524
g394
(g1868
g396
Ntp2525
Rp2526
(dp2527
g1872
g1609
sg1873
g2007
sg420
g1653
sbsS'valarray'
p2528
g394
(g1868
g396
Ntp2529
Rp2530
(dp2531
g1872
g1880
sg1873
g1881
sg420
S'c:/marmalade/8.1/s3e/h/std/c++/valarray'
p2532
sbsS'iosfwd'
p2533
g394
(g1868
g396
Ntp2534
Rp2535
(dp2536
g1872
g1880
sg1873
g1881
sg420
S'c:/marmalade/8.1/s3e/h/std/c++/iosfwd'
p2537
sbsS'gl2.h'
p2538
g394
(g1868
g396
Ntp2539
Rp2540
(dp2541
g1872
g1880
sg1873
g2126
sg420
S'c:/marmalade/8.1/s3e/h/GLES2/gl2.h'
p2542
sbsS'jpegint.h'
p2543
g394
(g1868
g396
Ntp2544
Rp2545
(dp2546
g1872
g1835
sg1873
g1960
sg420
g1842
sbsS'stdiostream.h'
p2547
g394
(g1868
g396
Ntp2548
Rp2549
(dp2550
g1872
g1880
sg1873
g1881
sg420
S'c:/marmalade/8.1/s3e/h/std/c++/stdiostream.h'
p2551
sbsS'mem.h'
p2552
g394
(g1868
g396
Ntp2553
Rp2554
(dp2555
g1872
g1880
sg1873
g1881
sg420
S'c:/marmalade/8.1/s3e/h/std/c++/mem.h'
p2556
sbsS'jerror.h'
p2557
g394
(g1868
g396
Ntp2558
Rp2559
(dp2560
g1872
g1835
sg1873
g1960
sg420
g1858
sbsS'SceneManager.cpp'
p2561
g394
(g1868
g396
Ntp2562
Rp2563
(dp2564
g1872
g1358
sg1873
g2100
sg420
g1361
sbsS'zconf.h'
p2565
g394
(g1868
g396
Ntp2566
Rp2567
(dp2568
g1872
g1778
sg1873
(lp2569
g1773
ag1329
asg420
g1776
sbsS's3e.config.txt'
p2570
g394
(g1868
g396
Ntp2571
Rp2572
(dp2573
g1872
g1880
sg1873
g1896
sg420
S'c:/marmalade/8.1/s3e/s3e.config.txt'
p2574
sbsS'numeric'
p2575
g394
(g1868
g396
Ntp2576
Rp2577
(dp2578
g1872
g1880
sg1873
g1881
sg420
S'c:/marmalade/8.1/s3e/h/std/c++/numeric'
p2579
sbsS'utime.h'
p2580
g394
(g1868
g396
Ntp2581
Rp2582
(dp2583
g1872
g1880
sg1873
g1902
sg420
S'c:/marmalade/8.1/s3e/h/std/utime.h'
p2584
sbsS'jdhuff.h'
p2585
g394
(g1868
g396
Ntp2586
Rp2587
(dp2588
g1872
g1835
sg1873
g1960
sg420
g1852
sbsS'un.h'
p2589
g394
(g1868
g396
Ntp2590
Rp2591
(dp2592
g1872
g1880
sg1873
g2020
sg420
S'c:/marmalade/8.1/s3e/h/std/sys/un.h'
p2593
sbsS'IwImage.h'
p2594
g394
(g1868
g396
Ntp2595
Rp2596
(dp2597
g1872
g1673
sg1873
g1909
sg420
g1749
sbsS's3eImagePicker.h'
p2598
g394
(g1868
g396
Ntp2599
Rp2600
(dp2601
g1872
g1880
sg1873
g2089
sg420
S'c:/marmalade/8.1/s3e/h/ext/s3eImagePicker.h'
p2602
sbsS'AnimatedImage.h'
p2603
g394
(g1868
g396
Ntp2604
Rp2605
(dp2606
g1872
g1358
sg1873
g2100
sg420
g1359
sbsS'stdlib.h'
p2607
g394
(g1868
g396
Ntp2608
Rp2609
(dp2610
g1872
g1880
sg1873
g1902
sg420
S'c:/marmalade/8.1/s3e/h/std/stdlib.h'
p2611
sbsS'IwCopyingPtr.h'
p2612
g394
(g1868
g396
Ntp2613
Rp2614
(dp2615
g1872
g1673
sg1873
g1909
sg420
g1721
sbsS'iostream'
p2616
g394
(g1868
g396
Ntp2617
Rp2618
(dp2619
g1872
g1880
sg1873
g1881
sg420
S'c:/marmalade/8.1/s3e/h/std/c++/iostream'
p2620
sbsS'png.h'
p2621
g394
(g1868
g396
Ntp2622
Rp2623
(dp2624
g1872
g1333
sg1873
(lp2625
g1327
ag1329
asg420
g1331
sbsS'stddef.h'
p2626
g394
(g1868
g396
Ntp2627
Rp2628
(dp2629
g1872
g1880
sg1873
g1902
sg420
S'c:/marmalade/8.1/s3e/h/std/stddef.h'
p2630
sbsS'setjmp_win32.h'
p2631
g394
(g1868
g396
Ntp2632
Rp2633
(dp2634
g1872
g1880
sg1873
g1902
sg420
S'c:/marmalade/8.1/s3e/h/std/setjmp_win32.h'
p2635
sbsS'IwGxPrint.h'
p2636
g394
(g1868
g396
Ntp2637
Rp2638
(dp2639
g1872
g1609
sg1873
g2007
sg420
g1610
sbsS'iwgx_public.defines.txt'
p2640
g394
(g1868
g396
Ntp2641
Rp2642
(dp2643
g1872
g1609
sg1873
g2007
sg420
g1616
sbsS'SceneManager.h'
p2644
g394
(g1868
g396
Ntp2645
Rp2646
(dp2647
g1872
g1358
sg1873
g2100
sg420
g1373
sbsS'IwGeomFPlane.h'
p2648
g394
(g1868
g396
Ntp2649
Rp2650
(dp2651
g1872
g1509
sg1873
g1930
sg420
g1522
sbsS'ParentTile.h'
p2652
g394
(g1868
g396
Ntp2653
Rp2654
(dp2655
g1872
g1358
sg1873
g2100
sg420
g1377
sbsS'wchar.h'
p2656
g394
(g1868
g396
Ntp2657
Rp2658
(dp2659
g1872
g1880
sg1873
g1902
sg420
S'c:/marmalade/8.1/s3e/h/std/wchar.h'
p2660
sbsS's3eCameraCapture.h'
p2661
g394
(g1868
g396
Ntp2662
Rp2663
(dp2664
g1872
g1880
sg1873
g2089
sg420
S'c:/marmalade/8.1/s3e/h/ext/s3eCameraCapture.h'
p2665
sbsS'eglext.h'
p2666
g394
(g1868
g396
Ntp2667
Rp2668
(dp2669
g1872
g1880
sg1873
g2223
sg420
S'c:/marmalade/8.1/s3e/h/EGL/eglext.h'
p2670
sbsS'IwResHandlerImage.h'
p2671
g394
(g1868
g396
Ntp2672
Rp2673
(dp2674
g1872
g1585
sg1873
g2438
sg420
g1593
sbsS'strstream.h'
p2675
g394
(g1868
g396
Ntp2676
Rp2677
(dp2678
g1872
g1880
sg1873
g1881
sg420
S'c:/marmalade/8.1/s3e/h/std/c++/strstream.h'
p2679
sbsS'tiniconv.h'
p2680
g394
(g1868
g396
Ntp2681
Rp2682
(dp2683
g1872
g1348
sg1873
g2347
sg420
g1346
sbsS'IwGLExt.h'
p2684
g394
(g1868
g396
Ntp2685
Rp2686
(dp2687
g1872
g1463
sg1873
g1890
sg420
g1469
sbsS'app.icf'
p2688
g394
(g1868
g396
Ntp2689
Rp2690
(dp2691
g1872
(dp2692
sg1873
g4
sg420
S'c:/Users/conor/Documents/WorldGrid/Github/data/app.icf'
p2693
sbsS'IwClassFactory.h'
p2694
g394
(g1868
g396
Ntp2695
Rp2696
(dp2697
g1872
g1673
sg1873
g1909
sg420
g1769
sbsS'file.h'
p2698
g394
(g1868
g396
Ntp2699
Rp2700
(dp2701
g1872
g1880
sg1873
g2020
sg420
S'c:/marmalade/8.1/s3e/h/std/sys/file.h'
p2702
sbsS'cstring'
p2703
g394
(g1868
g396
Ntp2704
Rp2705
(dp2706
g1872
g1880
sg1873
g1881
sg420
S'c:/marmalade/8.1/s3e/h/std/c++/cstring'
p2707
sbsS'WorldGrid.cpp'
p2708
g394
(g1868
g396
Ntp2709
Rp2710
(dp2711
g1872
g1358
sg1873
g2100
sg420
g1363
sbsS'CInput.cpp'
p2712
g394
(g1868
g396
Ntp2713
Rp2714
(dp2715
g1872
g1358
sg1873
g2209
sg420
g1798
sbsS'iwutil.config.txt'
p2716
g394
(g1868
g396
Ntp2717
Rp2718
(dp2719
g1872
g1673
sg1873
g1909
sg420
g1753
sbsS's3eSMS.h'
p2720
g394
(g1868
g396
Ntp2721
Rp2722
(dp2723
g1872
g1880
sg1873
g2089
sg420
S'c:/marmalade/8.1/s3e/h/ext/s3eSMS.h'
p2724
sbsS'limits.h'
p2725
g394
(g1868
g396
Ntp2726
Rp2727
(dp2728
g1872
g1880
sg1873
g1902
sg420
S'c:/marmalade/8.1/s3e/h/std/limits.h'
p2729
sbsS's3eLibrary.h'
p2730
g394
(g1868
g396
Ntp2731
Rp2732
(dp2733
g1872
g1880
sg1873
g2089
sg420
S'c:/marmalade/8.1/s3e/h/ext/s3eLibrary.h'
p2734
sbsS'IwMaterial.h'
p2735
g394
(g1868
g396
Ntp2736
Rp2737
(dp2738
g1872
g1609
sg1873
g2007
sg420
g1626
sbsS'amazon-ads-ios-sdk.mkf'
p2739
g394
(g1868
g396
Ntp2740
Rp2741
(dp2742
g1872
g1395
sg1873
(lp2743
g1391
asg420
g1393
sbsS'PVRTexTool_interface.cpp'
p2744
g394
(g1868
g396
Ntp2745
Rp2746
(dp2747
g1872
g1432
sg1873
g2523
sg420
g1430
sbsS'IwGxSurface.h'
p2748
g394
(g1868
g396
Ntp2749
Rp2750
(dp2751
g1872
g1609
sg1873
g2007
sg420
g1614
sbsS's3eSocket.h'
p2752
g394
(g1868
g396
Ntp2753
Rp2754
(dp2755
g1872
g1880
sg1873
g1896
sg420
S'c:/marmalade/8.1/s3e/h/s3eSocket.h'
p2756
sbsS'IwAutoFile.h'
p2757
g394
(g1868
g396
Ntp2758
Rp2759
(dp2760
g1872
g1673
sg1873
g1909
sg420
g1709
sbsS'ipc.h'
p2761
g394
(g1868
g396
Ntp2762
Rp2763
(dp2764
g1872
g1880
sg1873
g2020
sg420
S'c:/marmalade/8.1/s3e/h/std/sys/ipc.h'
p2765
sbsS'poll_1.h'
p2766
g394
(g1868
g396
Ntp2767
Rp2768
(dp2769
g1872
g1880
sg1873
g2020
sg420
S'c:/marmalade/8.1/s3e/h/std/sys/poll.h'
p2770
sbsS's3eThread.h'
p2771
g394
(g1868
g396
Ntp2772
Rp2773
(dp2774
g1872
g1880
sg1873
g1896
sg420
S'c:/marmalade/8.1/s3e/h/s3eThread.h'
p2775
sbsS'ucontext.h'
p2776
g394
(g1868
g396
Ntp2777
Rp2778
(dp2779
g1872
g1880
sg1873
g1902
sg420
S'c:/marmalade/8.1/s3e/h/std/ucontext.h'
p2780
sbsS'time.h'
p2781
g394
(g1868
g396
Ntp2782
Rp2783
(dp2784
g1872
g1880
sg1873
g1902
sg420
S'c:/marmalade/8.1/s3e/h/std/time.h'
p2785
sbsS'jchuff.h'
p2786
g394
(g1868
g396
Ntp2787
Rp2788
(dp2789
g1872
g1835
sg1873
g1960
sg420
g1838
sbsS's3eSoundRecord.h'
p2790
g394
(g1868
g396
Ntp2791
Rp2792
(dp2793
g1872
g1880
sg1873
g1896
sg420
S'c:/marmalade/8.1/s3e/h/s3eSoundRecord.h'
p2794
sbsS'IwFibre.h'
p2795
g394
(g1868
g396
Ntp2796
Rp2797
(dp2798
g1872
g1673
sg1873
g1909
sg420
g1694
sbsS's3eVersion.h'
p2799
g394
(g1868
g396
Ntp2800
Rp2801
(dp2802
g1872
g1880
sg1873
g1896
sg420
S'c:/marmalade/8.1/s3e/h/s3eVersion.h'
p2803
sbsS'IwGxFontGlyph.h'
p2804
g394
(g1868
g396
Ntp2805
Rp2806
(dp2807
g1872
g1487
sg1873
g1874
sg420
g1494
sbsS's3eTypes.h'
p2808
g394
(g1868
g396
Ntp2809
Rp2810
(dp2811
g1872
g1880
sg1873
g1896
sg420
S'c:/marmalade/8.1/s3e/h/s3eTypes.h'
p2812
sbsS'signal_2.h'
p2813
g394
(g1868
g396
Ntp2814
Rp2815
(dp2816
g1872
g1880
sg1873
g1881
sg420
S'c:/marmalade/8.1/s3e/h/std/c++/signal.h'
p2817
sbsS'termios.h'
p2818
g394
(g1868
g396
Ntp2819
Rp2820
(dp2821
g1872
g1880
sg1873
g1902
sg420
S'c:/marmalade/8.1/s3e/h/std/termios.h'
p2822
sbsS's3eAmazonAds_interface.cpp'
p2823
g394
(g1868
g396
Ntp2824
Rp2825
(dp2826
g1872
g1418
sg1873
(lp2827
g1410
ag1412
ag1414
asg420
g1419
sbsS'iw2dscenegraph.mkf'
p2828
g394
(g1868
g396
Ntp2829
Rp2830
(dp2831
g1872
g1454
sg1873
g2134
sg420
g1452
sbsS'slist'
p2832
g394
(g1868
g396
Ntp2833
Rp2834
(dp2835
g1872
g1880
sg1873
g1881
sg420
S'c:/marmalade/8.1/s3e/h/std/c++/slist'
p2836
sbsS'GenericFactory.h'
p2837
g394
(g1868
g396
Ntp2838
Rp2839
(dp2840
g1872
g1358
sg1873
(lp2841
g1396
asg420
g1400
sbsS'cstdlib'
p2842
g394
(g1868
g396
Ntp2843
Rp2844
(dp2845
g1872
g1880
sg1873
g1881
sg420
S'c:/marmalade/8.1/s3e/h/std/c++/cstdlib'
p2846
sbsS's3eLocation.h'
p2847
g394
(g1868
g396
Ntp2848
Rp2849
(dp2850
g1872
g1880
sg1873
g1896
sg420
S'c:/marmalade/8.1/s3e/h/s3eLocation.h'
p2851
sbsS'IwMemBucketHelpers.h'
p2852
g394
(g1868
g396
Ntp2853
Rp2854
(dp2855
g1872
g1673
sg1873
g1909
sg420
g1674
sbsS's3eHash.h'
p2856
g394
(g1868
g396
Ntp2857
Rp2858
(dp2859
g1872
g1880
sg1873
g1896
sg420
S'c:/marmalade/8.1/s3e/h/s3eHash.h'
p2860
sbsS'IwGeomFMat.h'
p2861
g394
(g1868
g396
Ntp2862
Rp2863
(dp2864
g1872
g1509
sg1873
g1930
sg420
g1558
sbsS'type_traits.h'
p2865
g394
(g1868
g396
Ntp2866
Rp2867
(dp2868
g1872
g1880
sg1873
g1881
sg420
S'c:/marmalade/8.1/s3e/h/std/c++/type_traits.h'
p2869
sbsS's3eAtomic.h'
p2870
g394
(g1868
g396
Ntp2871
Rp2872
(dp2873
g1872
g1880
sg1873
g1896
sg420
S'c:/marmalade/8.1/s3e/h/s3eAtomic.h'
p2874
sbsS'IwMenu.h'
p2875
g394
(g1868
g396
Ntp2876
Rp2877
(dp2878
g1872
g1673
sg1873
g1909
sg420
g1713
sbsS'IwResHandlerITX.h'
p2879
g394
(g1868
g396
Ntp2880
Rp2881
(dp2882
g1872
g1585
sg1873
g2438
sg420
g1599
sbsS'IwArray.h'
p2883
g394
(g1868
g396
Ntp2884
Rp2885
(dp2886
g1872
g1673
sg1873
g1909
sg420
g1690
sbsS'IwUTF8.h'
p2887
g394
(g1868
g396
Ntp2888
Rp2889
(dp2890
g1872
g1673
sg1873
g1909
sg420
g1676
sbsS'math_rvct.h'
p2891
g394
(g1868
g396
Ntp2892
Rp2893
(dp2894
g1872
g1880
sg1873
g1902
sg420
S'c:/marmalade/8.1/s3e/h/std/math_rvct.h'
p2895
sbsS'IwUtil.h'
p2896
g394
(g1868
g396
Ntp2897
Rp2898
(dp2899
g1872
g1673
sg1873
g1909
sg420
g1751
sbsS'IwFColour.h'
p2900
g394
(g1868
g396
Ntp2901
Rp2902
(dp2903
g1872
g1609
sg1873
g2007
sg420
g1641
sbsS's3eamazonads.mkf'
p2904
g394
(g1868
g396
Ntp2905
Rp2906
(dp2907
g1872
g1425
sg1873
(lp2908
g1410
ag1412
asg420
g1423
sbsS'wctype.h'
p2909
g394
(g1868
g396
Ntp2910
Rp2911
(dp2912
g1872
g1880
sg1873
g1902
sg420
S'c:/marmalade/8.1/s3e/h/std/wctype.h'
p2913
sbsS'cstddef'
p2914
g394
(g1868
g396
Ntp2915
Rp2916
(dp2917
g1872
g1880
sg1873
g1881
sg420
S'c:/marmalade/8.1/s3e/h/std/c++/cstddef'
p2918
sbsS'assert.h'
p2919
g394
(g1868
g396
Ntp2920
Rp2921
(dp2922
g1872
g1880
sg1873
g1902
sg420
S'c:/marmalade/8.1/s3e/h/std/assert.h'
p2923
sbsS'mman.h'
p2924
g394
(g1868
g396
Ntp2925
Rp2926
(dp2927
g1872
g1880
sg1873
g2020
sg420
S'c:/marmalade/8.1/s3e/h/std/sys/mman.h'
p2928
sbsS'IwRandom.h'
p2929
g394
(g1868
g396
Ntp2930
Rp2931
(dp2932
g1872
g1673
sg1873
g1909
sg420
g1698
sbsS'libgen.h'
p2933
g394
(g1868
g396
Ntp2934
Rp2935
(dp2936
g1872
g1880
sg1873
g1902
sg420
S'c:/marmalade/8.1/s3e/h/std/libgen.h'
p2937
sbsS'utsname.h'
p2938
g394
(g1868
g396
Ntp2939
Rp2940
(dp2941
g1872
g1880
sg1873
g2020
sg420
S'c:/marmalade/8.1/s3e/h/std/sys/utsname.h'
p2942
sbsS'wait.h'
p2943
g394
(g1868
g396
Ntp2944
Rp2945
(dp2946
g1872
g1880
sg1873
g2020
sg420
S'c:/marmalade/8.1/s3e/h/std/sys/wait.h'
p2947
sbsS'AnimatedImage.cpp'
p2948
g394
(g1868
g396
Ntp2949
Rp2950
(dp2951
g1872
g1358
sg1873
g2100
sg420
g1367
sbsS'param.h'
p2952
g394
(g1868
g396
Ntp2953
Rp2954
(dp2955
g1872
g1880
sg1873
g2020
sg420
S'c:/marmalade/8.1/s3e/h/std/sys/param.h'
p2956
sbsS'InputManager.h'
p2957
g394
(g1868
g396
Ntp2958
Rp2959
(dp2960
g1872
g1358
sg1873
g2209
sg420
g1818
sbsS'IwDivide.h'
p2961
g394
(g1868
g396
Ntp2962
Rp2963
(dp2964
g1872
g1673
sg1873
g1909
sg420
g1678
sbsS'Iw2DSceneGraphCore.cpp'
p2965
g394
(g1868
g396
Ntp2966
Rp2967
(dp2968
g1872
g1666
sg1873
(lp2969
S"'Marmalade Studio'"
p2970
ag1659
asg420
g1667
sbsS'IwResManager.h'
p2971
g394
(g1868
g396
Ntp2972
Rp2973
(dp2974
g1872
g1585
sg1873
g2438
sg420
g1603
sbsS'ostream'
p2975
g394
(g1868
g396
Ntp2976
Rp2977
(dp2978
g1872
g1880
sg1873
g1881
sg420
S'c:/marmalade/8.1/s3e/h/std/c++/ostream'
p2979
sbsS'cwctype'
p2980
g394
(g1868
g396
Ntp2981
Rp2982
(dp2983
g1872
g1880
sg1873
g1881
sg420
S'c:/marmalade/8.1/s3e/h/std/c++/cwctype'
p2984
sbsS'set'
p2985
g394
(g1868
g396
Ntp2986
Rp2987
(dp2988
g1872
g1880
sg1873
g1881
sg420
S'c:/marmalade/8.1/s3e/h/std/c++/set'
p2989
sbsS'IwGeomSQuat.h'
p2990
g394
(g1868
g396
Ntp2991
Rp2992
(dp2993
g1872
g1509
sg1873
g1930
sg420
g1507
sbsS'locale'
p2994
g394
(g1868
g396
Ntp2995
Rp2996
(dp2997
g1872
g1880
sg1873
g1881
sg420
S'c:/marmalade/8.1/s3e/h/std/c++/locale'
p2998
sbsS'cstdio'
p2999
g394
(g1868
g396
Ntp3000
Rp3001
(dp3002
g1872
g1880
sg1873
g1881
sg420
S'c:/marmalade/8.1/s3e/h/std/c++/cstdio'
p3003
sbsS'SimpleImage.cpp'
p3004
g394
(g1868
g396
Ntp3005
Rp3006
(dp3007
g1872
g1358
sg1873
g2100
sg420
g1387
sbsS'cdjpeg.h'
p3008
g394
(g1868
g396
Ntp3009
Rp3010
(dp3011
g1872
g1835
sg1873
g1960
sg420
g1840
sbsS'IwList.h'
p3012
g394
(g1868
g396
Ntp3013
Rp3014
(dp3015
g1872
g1673
sg1873
g1909
sg420
g1700
sbsS'inttypes.h'
p3016
g394
(g1868
g396
Ntp3017
Rp3018
(dp3019
g1872
g1880
sg1873
g1902
sg420
S'c:/marmalade/8.1/s3e/h/std/inttypes.h'
p3020
sbsS'dirent.h'
p3021
g394
(g1868
g396
Ntp3022
Rp3023
(dp3024
g1872
g1880
sg1873
g1902
sg420
S'c:/marmalade/8.1/s3e/h/std/dirent.h'
p3025
sbsS'IwGeomVec3.h'
p3026
g394
(g1868
g396
Ntp3027
Rp3028
(dp3029
g1872
g1509
sg1873
g1930
sg420
g1524
sbsS'transupp.h'
p3030
g394
(g1868
g396
Ntp3031
Rp3032
(dp3033
g1872
g1835
sg1873
g1960
sg420
g1844
sbsS'IwMath.h'
p3034
g394
(g1868
g396
Ntp3035
Rp3036
(dp3037
g1872
g1673
sg1873
g1909
sg420
g1707
sbsS'IwGeomQuat.h'
p3038
g394
(g1868
g396
Ntp3039
Rp3040
(dp3041
g1872
g1509
sg1873
g1930
sg420
g1540
sbsS'glplatform.h'
p3042
g394
(g1868
g396
Ntp3043
Rp3044
(dp3045
g1872
g1880
sg1873
g2231
sg420
S'c:/marmalade/8.1/s3e/h/GLES/glplatform.h'
p3046
sbsS'MobileController.h'
p3047
g394
(g1868
g396
Ntp3048
Rp3049
(dp3050
g1872
g1358
sg1873
g2209
sg420
g1812
sbsS's3e-default.mkf'
p3051
g394
(g1868
g396
Ntp3052
Rp3053
(dp3054
g1872
g1444
sg1873
(lp3055
g1440
asg420
g1442
sbsS'iwgl.config.txt'
p3056
g394
(g1868
g396
Ntp3057
Rp3058
(dp3059
g1872
g1463
sg1873
g1890
sg420
g1461
sbsS'bitset'
p3060
g394
(g1868
g396
Ntp3061
Rp3062
(dp3063
g1872
g1880
sg1873
g1881
sg420
S'c:/marmalade/8.1/s3e/h/std/c++/bitset'
p3064
sbsS'alloca.h'
p3065
g394
(g1868
g396
Ntp3066
Rp3067
(dp3068
g1872
g1880
sg1873
g1902
sg420
S'c:/marmalade/8.1/s3e/h/std/alloca.h'
p3069
sbsS'IwResHandler.h'
p3070
g394
(g1868
g396
Ntp3071
Rp3072
(dp3073
g1872
g1585
sg1873
g2438
sg420
g1586
sbsS'IwResHandlerMTL.h'
p3074
g394
(g1868
g396
Ntp3075
Rp3076
(dp3077
g1872
g1609
sg1873
g2007
sg420
g1637
sbsS'IwRuntime.h'
p3078
g394
(g1868
g396
Ntp3079
Rp3080
(dp3081
g1872
g1673
sg1873
g1909
sg420
g1747
sbsS'SimpleTile.h'
p3082
g394
(g1868
g396
Ntp3083
Rp3084
(dp3085
g1872
g1358
sg1873
g2100
sg420
g1389
sbsS'limits'
p3086
g394
(g1868
g396
Ntp3087
Rp3088
(dp3089
g1872
g1880
sg1873
g1881
sg420
S'c:/marmalade/8.1/s3e/h/std/c++/limits'
p3090
sbsS'IwGeomBBox.h'
p3091
g394
(g1868
g396
Ntp3092
Rp3093
(dp3094
g1872
g1509
sg1873
g1930
sg420
g1556
sbsS'HidController.h'
p3095
g394
(g1868
g396
Ntp3096
Rp3097
(dp3098
g1872
g1358
sg1873
g2209
sg420
g1820
sbsS's3eContacts.h'
p3099
g394
(g1868
g396
Ntp3100
Rp3101
(dp3102
g1872
g1880
sg1873
g1896
sg420
S'c:/marmalade/8.1/s3e/h/s3eContacts.h'
p3103
sbsS's3eLicense.h'
p3104
g394
(g1868
g396
Ntp3105
Rp3106
(dp3107
g1872
g1880
sg1873
g1896
sg420
S'c:/marmalade/8.1/s3e/h/s3eLicense.h'
p3108
sbsS'iwgx.config.txt'
p3109
g394
(g1868
g396
Ntp3110
Rp3111
(dp3112
g1872
g1609
sg1873
g2007
sg420
g1645
sbsS'IwTextParser.h'
p3113
g394
(g1868
g396
Ntp3114
Rp3115
(dp3116
g1872
g1673
sg1873
g1909
sg420
g1771
sbsS's3eTimer.h'
p3117
g394
(g1868
g396
Ntp3118
Rp3119
(dp3120
g1872
g1880
sg1873
g1896
sg420
S'c:/marmalade/8.1/s3e/h/s3eTimer.h'
p3121
sbsS'IwGeomVec.h'
p3122
g394
(g1868
g396
Ntp3123
Rp3124
(dp3125
g1872
g1509
sg1873
g1930
sg420
g1530
sbsS'IwSerialise.h'
p3126
g394
(g1868
g396
Ntp3127
Rp3128
(dp3129
g1872
g1673
sg1873
g1909
sg420
g1765
sbsS'cstdarg'
p3130
g394
(g1868
g396
Ntp3131
Rp3132
(dp3133
g1872
g1880
sg1873
g1881
sg420
S'c:/marmalade/8.1/s3e/h/std/c++/cstdarg'
p3134
sbsS'gl2ext.h'
p3135
g394
(g1868
g396
Ntp3136
Rp3137
(dp3138
g1872
g1880
sg1873
g2126
sg420
S'c:/marmalade/8.1/s3e/h/GLES2/gl2ext.h'
p3139
sbsS'IwChar.h'
p3140
g394
(g1868
g396
Ntp3141
Rp3142
(dp3143
g1872
g1673
sg1873
g1909
sg420
g1715
sbsS's3eSound.h'
p3144
g394
(g1868
g396
Ntp3145
Rp3146
(dp3147
g1872
g1880
sg1873
g1896
sg420
S'c:/marmalade/8.1/s3e/h/s3eSound.h'
p3148
sbsS'IwTexture.h'
p3149
g394
(g1868
g396
Ntp3150
Rp3151
(dp3152
g1872
g1609
sg1873
g2007
sg420
g1612
sbsS'IwOptimiseThumb.h'
p3153
g394
(g1868
g396
Ntp3154
Rp3155
(dp3156
g1872
g1673
sg1873
g1909
sg420
g1696
sbsS'exception.h'
p3157
g394
(g1868
g396
Ntp3158
Rp3159
(dp3160
g1872
g1880
sg1873
g1881
sg420
S'c:/marmalade/8.1/s3e/h/std/c++/exception.h'
p3161
sbsS'iwgeom.config.txt'
p3162
g394
(g1868
g396
Ntp3163
Rp3164
(dp3165
g1872
g1509
sg1873
g1930
sg420
g1566
sbsS'Scene.cpp'
p3166
g394
(g1868
g396
Ntp3167
Rp3168
(dp3169
g1872
g1358
sg1873
g2100
sg420
g1371
sbsS'gl31.h'
p3170
g394
(g1868
g396
Ntp3171
Rp3172
(dp3173
g1872
g1880
sg1873
g2186
sg420
S'c:/marmalade/8.1/s3e/h/GLES3/gl31.h'
p3174
sbsS'gl.h'
p3175
g394
(g1868
g396
Ntp3176
Rp3177
(dp3178
g1872
g1880
sg1873
g2231
sg420
S'c:/marmalade/8.1/s3e/h/GLES/gl.h'
p3179
sbsS'zlib.h'
p3180
g394
(g1868
g396
Ntp3181
Rp3182
(dp3183
g1872
g1778
sg1873
g2569
sg420
g1779
sbsS'temp_defines_release.h'
p3184
g394
(g1868
g396
Ntp3185
Rp3186
(dp3187
g1872
(lp3188
sg1873
(lp3189
S"'generated files'"
p3190
asg420
S'c:/Users/conor/Documents/WorldGrid/Github/build_aliceengine2_vc14/temp_defines_release.h'
p3191
sbsS'iwgl.mkf'
p3192
g394
(g1868
g396
Ntp3193
Rp3194
(dp3195
g1872
g1468
sg1873
g1890
sg420
g1466
sbsS'HidController.cpp'
p3196
g394
(g1868
g396
Ntp3197
Rp3198
(dp3199
g1872
g1358
sg1873
g2209
sg420
g1814
sbsS'IwColour.h'
p3200
g394
(g1868
g396
Ntp3201
Rp3202
(dp3203
g1872
g1609
sg1873
g2007
sg420
g1618
sbsS'types.h'
p3204
g394
(g1868
g396
Ntp3205
Rp3206
(dp3207
g1872
g1880
sg1873
g2020
sg420
S'c:/marmalade/8.1/s3e/h/std/sys/types.h'
p3208
sbsS'ifaddrs.h'
p3209
g394
(g1868
g396
Ntp3210
Rp3211
(dp3212
g1872
g1880
sg1873
g1902
sg420
S'c:/marmalade/8.1/s3e/h/std/ifaddrs.h'
p3213
sbsS'strstream'
p3214
g394
(g1868
g396
Ntp3215
Rp3216
(dp3217
g1872
g1880
sg1873
g1881
sg420
S'c:/marmalade/8.1/s3e/h/std/c++/strstream'
p3218
sbsS'IwTween.cpp'
p3219
g394
(g1868
g396
Ntp3220
Rp3221
(dp3222
g1872
g1791
sg1873
g2390
sg420
g1789
sbsS'exception'
p3223
g394
(g1868
g396
Ntp3224
Rp3225
(dp3226
g1872
g1880
sg1873
g1881
sg420
S'c:/marmalade/8.1/s3e/h/std/c++/exception'
p3227
sbsS's3eAmazonAds.defines.txt'
p3228
g394
(g1868
g396
Ntp3229
Rp3230
(dp3231
g1872
g1418
sg1873
g2827
sg420
g1416
sbsS'SimpleImage.h'
p3232
g394
(g1868
g396
Ntp3233
Rp3234
(dp3235
g1872
g1358
sg1873
g2100
sg420
g1375
sbsS'rlocks.h'
p3236
g394
(g1868
g396
Ntp3237
Rp3238
(dp3239
g1872
g1880
sg1873
g1881
sg420
S'c:/marmalade/8.1/s3e/h/std/c++/rlocks.h'
p3240
sbsS'ioctl.h'
p3241
g394
(g1868
g396
Ntp3242
Rp3243
(dp3244
g1872
g1880
sg1873
g2020
sg420
S'c:/marmalade/8.1/s3e/h/std/sys/ioctl.h'
p3245
sbsS'rope'
p3246
g394
(g1868
g396
Ntp3247
Rp3248
(dp3249
g1872
g1880
sg1873
g1881
sg420
S'c:/marmalade/8.1/s3e/h/std/c++/rope'
p3250
sbsS'jinclude.h'
p3251
g394
(g1868
g396
Ntp3252
Rp3253
(dp3254
g1872
g1835
sg1873
g1960
sg420
g1833
sbsS'IwEvent.h'
p3255
g394
(g1868
g396
Ntp3256
Rp3257
(dp3258
g1872
g1673
sg1873
g1909
sg420
g1717
sbsS'IwOptimiseSize.h'
p3259
g394
(g1868
g396
Ntp3260
Rp3261
(dp3262
g1872
g1673
sg1873
g1909
sg420
g1671
sbsS'iwgxfont_public.defines.txt'
p3263
g394
(g1868
g396
Ntp3264
Rp3265
(dp3266
g1872
g1487
sg1873
g1874
sg420
g1492
sbsS'iconv.h'
p3267
g394
(g1868
g396
Ntp3268
Rp3269
(dp3270
g1872
g1880
sg1873
g1902
sg420
S'c:/marmalade/8.1/s3e/h/std/iconv.h'
p3271
sbsS's3eDevice.h'
p3272
g394
(g1868
g396
Ntp3273
Rp3274
(dp3275
g1872
g1880
sg1873
g1896
sg420
S'c:/marmalade/8.1/s3e/h/s3eDevice.h'
p3276
sbsS'IwGeomSphere.h'
p3277
g394
(g1868
g396
Ntp3278
Rp3279
(dp3280
g1872
g1509
sg1873
g1930
sg420
g1544
sbsS'tiniconv.mkf'
p3281
g394
(g1868
g396
Ntp3282
Rp3283
(dp3284
g1872
g1353
sg1873
g2347
sg420
g1351
sbsS'IwResManagerClass.h'
p3285
g394
(g1868
g396
Ntp3286
Rp3287
(dp3288
g1872
g1585
sg1873
g2438
sg420
g1597
sbsS'jdct.h'
p3289
g394
(g1868
g396
Ntp3290
Rp3291
(dp3292
g1872
g1835
sg1873
g1960
sg420
g1850
sbsS'cctype'
p3293
g394
(g1868
g396
Ntp3294
Rp3295
(dp3296
g1872
g1880
sg1873
g1881
sg420
S'c:/marmalade/8.1/s3e/h/std/c++/cctype'
p3297
sbsS's3eConfig.h'
p3298
g394
(g1868
g396
Ntp3299
Rp3300
(dp3301
g1872
g1880
sg1873
g1896
sg420
S'c:/marmalade/8.1/s3e/h/s3eConfig.h'
p3302
sbsS'IwHashString.h'
p3303
g394
(g1868
g396
Ntp3304
Rp3305
(dp3306
g1872
g1673
sg1873
g1909
sg420
g1745
sbsS'stat.h'
p3307
g394
(g1868
g396
Ntp3308
Rp3309
(dp3310
g1872
g1880
sg1873
g2020
sg420
S'c:/marmalade/8.1/s3e/h/std/sys/stat.h'
p3311
sbsS'byteswap.h'
p3312
g394
(g1868
g396
Ntp3313
Rp3314
(dp3315
g1872
g1880
sg1873
g1902
sg420
S'c:/marmalade/8.1/s3e/h/std/byteswap.h'
p3316
sbsS'iwresmanager.mkf'
p3317
g394
(g1868
g396
Ntp3318
Rp3319
(dp3320
g1872
g1590
sg1873
g2438
sg420
g1588
sbsS'IwUtilInitTerm.h'
p3321
g394
(g1868
g396
Ntp3322
Rp3323
(dp3324
g1872
g1673
sg1873
g1909
sg420
g1761
sbsS'pthread_1.h'
p3325
g394
(g1868
g396
Ntp3326
Rp3327
(dp3328
g1872
g1880
sg1873
g1881
sg420
S'c:/marmalade/8.1/s3e/h/std/c++/pthread.h'
p3329
sbsS'IwMemBucket.h'
p3330
g394
(g1868
g396
Ntp3331
Rp3332
(dp3333
g1872
g1673
sg1873
g1909
sg420
g1729
sbsS'complex'
p3334
g394
(g1868
g396
Ntp3335
Rp3336
(dp3337
g1872
g1880
sg1873
g1881
sg420
S'c:/marmalade/8.1/s3e/h/std/c++/complex'
p3338
sbsS'algorithm'
p3339
g394
(g1868
g396
Ntp3340
Rp3341
(dp3342
g1872
g1880
sg1873
g1881
sg420
S'c:/marmalade/8.1/s3e/h/std/c++/algorithm'
p3343
sbsS'MobileController.cpp'
p3344
g394
(g1868
g396
Ntp3345
Rp3346
(dp3347
g1872
g1358
sg1873
g2209
sg420
g1822
sbsS's3e.icf'
p3348
g394
(g1868
g396
Ntp3349
Rp3350
(dp3351
g1872
g1880
sg1873
g1896
sg420
S'c:/marmalade/8.1/s3e/s3e.icf'
p3352
sbsS'IwVariableBitField.h'
p3353
g394
(g1868
g396
Ntp3354
Rp3355
(dp3356
g1872
g1673
sg1873
g1909
sg420
g1737
sbsS'sem.h'
p3357
g394
(g1868
g396
Ntp3358
Rp3359
(dp3360
g1872
g1880
sg1873
g2020
sg420
S'c:/marmalade/8.1/s3e/h/std/sys/sem.h'
p3361
sbsS'IwGxFontState.h'
p3362
g394
(g1868
g396
Ntp3363
Rp3364
(dp3365
g1872
g1487
sg1873
g1874
sg420
g1496
sbsS'stdio.h'
p3366
g394
(g1868
g396
Ntp3367
Rp3368
(dp3369
g1872
g1880
sg1873
g1902
sg420
S'c:/marmalade/8.1/s3e/h/std/stdio.h'
p3370
sbsS'Game.h'
p3371
g394
(g1868
g396
Ntp3372
Rp3373
(dp3374
g1872
g1358
sg1873
(lp3375
g1402
asg420
g1408
sbsS'jmemsys.h'
p3376
g394
(g1868
g396
Ntp3377
Rp3378
(dp3379
g1872
g1835
sg1873
g1960
sg420
g1854
sbsS'ios'
p3380
g394
(g1868
g396
Ntp3381
Rp3382
(dp3383
g1872
g1880
sg1873
g1881
sg420
S'c:/marmalade/8.1/s3e/h/std/c++/ios'
p3384
sbsS'IwTween.h'
p3385
g394
(g1868
g396
Ntp3386
Rp3387
(dp3388
g1872
g1791
sg1873
g2390
sg420
g1792
sbsS'IwGeomFVec4.h'
p3389
g394
(g1868
g396
Ntp3390
Rp3391
(dp3392
g1872
g1509
sg1873
g1930
sg420
g1548
sbsS'stack'
p3393
g394
(g1868
g396
Ntp3394
Rp3395
(dp3396
g1872
g1880
sg1873
g1881
sg420
S'c:/marmalade/8.1/s3e/h/std/c++/stack'
p3397
sbsS'new.h'
p3398
g394
(g1868
g396
Ntp3399
Rp3400
(dp3401
g1872
g1880
sg1873
g1881
sg420
S'c:/marmalade/8.1/s3e/h/std/c++/new.h'
p3402
sbsS's3eAmazonAds.h'
p3403
g394
(g1868
g396
Ntp3404
Rp3405
(dp3406
g1872
g1418
sg1873
g2908
sg420
g1421
sbsS's3eEMail.h'
p3407
g394
(g1868
g396
Ntp3408
Rp3409
(dp3410
g1872
g1880
sg1873
g2089
sg420
S'c:/marmalade/8.1/s3e/h/ext/s3eEMail.h'
p3411
sbsS's3eVideo.h'
p3412
g394
(g1868
g396
Ntp3413
Rp3414
(dp3415
g1872
g1880
sg1873
g1896
sg420
S'c:/marmalade/8.1/s3e/h/s3eVideo.h'
p3416
sbsS'pngconf.h'
p3417
g394
(g1868
g396
Ntp3418
Rp3419
(dp3420
g1872
g1333
sg1873
g2625
sg420
g1334
sbsS'pwd.h'
p3421
g394
(g1868
g396
Ntp3422
Rp3423
(dp3424
g1872
g1880
sg1873
g1902
sg420
S'c:/marmalade/8.1/s3e/h/std/pwd.h'
p3425
sbsS'InputManager.cpp'
p3426
g394
(g1868
g396
Ntp3427
Rp3428
(dp3429
g1872
g1358
sg1873
g2209
sg420
g1826
sbsS'gl3.h'
p3430
g394
(g1868
g396
Ntp3431
Rp3432
(dp3433
g1872
g1880
sg1873
g2186
sg420
S'c:/marmalade/8.1/s3e/h/GLES3/gl3.h'
p3434
sbsS'IwClip.h'
p3435
g394
(g1868
g396
Ntp3436
Rp3437
(dp3438
g1872
g1609
sg1873
g2007
sg420
g1639
sbsS'iwresmanager.config.txt'
p3439
g394
(g1868
g396
Ntp3440
Rp3441
(dp3442
g1872
g1585
sg1873
g2438
sg420
g1595
sbsS'IwGxShaderTechnique.h'
p3443
g394
(g1868
g396
Ntp3444
Rp3445
(dp3446
g1872
g1609
sg1873
g2007
sg420
g1620
sbsS'IwCore.h'
p3447
g394
(g1868
g396
Ntp3448
Rp3449
(dp3450
g1872
g1673
sg1873
g1909
sg420
g1688
sbsS'cfloat'
p3451
g394
(g1868
g396
Ntp3452
Rp3453
(dp3454
g1872
g1880
sg1873
g1881
sg420
S'c:/marmalade/8.1/s3e/h/std/c++/cfloat'
p3455
sbsS'IwGeomMat2D.h'
p3456
g394
(g1868
g396
Ntp3457
Rp3458
(dp3459
g1872
g1509
sg1873
g1930
sg420
g1512
sbsS'IwAllocator.h'
p3460
g394
(g1868
g396
Ntp3461
Rp3462
(dp3463
g1872
g1673
sg1873
g1909
sg420
g1684
sbsS'IwPath.h'
p3464
g394
(g1868
g396
Ntp3465
Rp3466
(dp3467
g1872
g1673
sg1873
g1909
sg420
g1767
sbsS'iwgxfont.mkf'
p3468
g394
(g1868
g396
Ntp3469
Rp3470
(dp3471
g1872
g1502
sg1873
g1874
sg420
g1500
sbsS'ControllerManager.h'
p3472
g394
(g1868
g396
Ntp3473
Rp3474
(dp3475
g1872
g1358
sg1873
g2209
sg420
g1816
sbsS'IwGeomVec.h.tpl'
p3476
g394
(g1868
g396
Ntp3477
Rp3478
(dp3479
g1872
g1509
sg1873
g1930
sg420
g1532
sbsS's3eAccelerometer.h'
p3480
g394
(g1868
g396
Ntp3481
Rp3482
(dp3483
g1872
g1880
sg1873
g1896
sg420
S'c:/marmalade/8.1/s3e/h/s3eAccelerometer.h'
p3484
sbsS'setjmp.h'
p3485
g394
(g1868
g396
Ntp3486
Rp3487
(dp3488
g1872
g1880
sg1873
g1902
sg420
S'c:/marmalade/8.1/s3e/h/std/setjmp.h'
p3489
sbsS'IwFile.h'
p3490
g394
(g1868
g396
Ntp3491
Rp3492
(dp3493
g1872
g1673
sg1873
g1909
sg420
g1723
sbsS'IwTextParseable.h'
p3494
g394
(g1868
g396
Ntp3495
Rp3496
(dp3497
g1872
g1673
sg1873
g1909
sg420
g1731
sbsS'istream.h'
p3498
g394
(g1868
g396
Ntp3499
Rp3500
(dp3501
g1872
g1880
sg1873
g1881
sg420
S'c:/marmalade/8.1/s3e/h/std/c++/istream.h'
p3502
sbsS'stdint.h'
p3503
g394
(g1868
g396
Ntp3504
Rp3505
(dp3506
g1872
g1880
sg1873
g1902
sg420
S'c:/marmalade/8.1/s3e/h/std/stdint.h'
p3507
sbsS'semaphore.h'
p3508
g394
(g1868
g396
Ntp3509
Rp3510
(dp3511
g1872
g1880
sg1873
g1902
sg420
S'c:/marmalade/8.1/s3e/h/std/semaphore.h'
p3512
sbsS'Main.cpp'
p3513
g394
(g1868
g396
Ntp3514
Rp3515
(dp3516
g1872
g1358
sg1873
g3375
sg420
g1404
sbsS'ctime'
p3517
g394
(g1868
g396
Ntp3518
Rp3519
(dp3520
g1872
g1880
sg1873
g1881
sg420
S'c:/marmalade/8.1/s3e/h/std/c++/ctime'
p3521
sbsS'sstream'
p3522
g394
(g1868
g396
Ntp3523
Rp3524
(dp3525
g1872
g1880
sg1873
g1881
sg420
S'c:/marmalade/8.1/s3e/h/std/c++/sstream'
p3526
sbsS'DrawableInterface.h'
p3527
g394
(g1868
g396
Ntp3528
Rp3529
(dp3530
g1872
g1358
sg1873
g2100
sg420
g1383
sbsS'ControllerManager.cpp'
p3531
g394
(g1868
g396
Ntp3532
Rp3533
(dp3534
g1872
g1358
sg1873
g2209
sg420
g1800
sbsS'IwGeomFBBox.h'
p3535
g394
(g1868
g396
Ntp3536
Rp3537
(dp3538
g1872
g1509
sg1873
g1930
sg420
g1554
sbsS'IwDebugPrim.h'
p3539
g394
(g1868
g396
Ntp3540
Rp3541
(dp3542
g1872
g1609
sg1873
g2007
sg420
g1628
sbsS'IwGxFontContainer.h'
p3543
g394
(g1868
g396
Ntp3544
Rp3545
(dp3546
g1872
g1487
sg1873
g1874
sg420
g1490
sbsS'IwGeomSVec3.h'
p3547
g394
(g1868
g396
Ntp3548
Rp3549
(dp3550
g1872
g1509
sg1873
g1930
sg420
g1550
sbsS'iw2dscenegraphcore.mkf'
p3551
g394
(g1868
g396
Ntp3552
Rp3553
(dp3554
g1872
g1663
sg1873
g2969
sg420
g1661
sbsS's3eExt.h'
p3555
g394
(g1868
g396
Ntp3556
Rp3557
(dp3558
g1872
g1880
sg1873
g1896
sg420
S'c:/marmalade/8.1/s3e/h/s3eExt.h'
p3559
sbsS'IwGeomFVec3.h'
p3560
g394
(g1868
g396
Ntp3561
Rp3562
(dp3563
g1872
g1509
sg1873
g1930
sg420
g1538
sbsS'streambuf'
p3564
g394
(g1868
g396
Ntp3565
Rp3566
(dp3567
g1872
g1880
sg1873
g1881
sg420
S'c:/marmalade/8.1/s3e/h/std/c++/streambuf'
p3568
sbsS's3eMetrics.h'
p3569
g394
(g1868
g396
Ntp3570
Rp3571
(dp3572
g1872
g1880
sg1873
g2089
sg420
S'c:/marmalade/8.1/s3e/h/ext/s3eMetrics.h'
p3573
sbsS'IwGxFont.h'
p3574
g394
(g1868
g396
Ntp3575
Rp3576
(dp3577
g1872
g1487
sg1873
g1874
sg420
g1485
sbsS's3eSecureStorage.h'
p3578
g394
(g1868
g396
Ntp3579
Rp3580
(dp3581
g1872
g1880
sg1873
g1896
sg420
S'c:/marmalade/8.1/s3e/h/s3eSecureStorage.h'
p3582
sbsS'string.h'
p3583
g394
(g1868
g396
Ntp3584
Rp3585
(dp3586
g1872
g1880
sg1873
g1902
sg420
S'c:/marmalade/8.1/s3e/h/std/string.h'
p3587
sbsS'IwResource.h'
p3588
g394
(g1868
g396
Ntp3589
Rp3590
(dp3591
g1872
g1673
sg1873
g1909
sg420
g1692
sbsS'IwGeomSVec2.h'
p3592
g394
(g1868
g396
Ntp3593
Rp3594
(dp3595
g1872
g1509
sg1873
g1930
sg420
g1546
sbsS'libjpeg.mkf'
p3596
g394
(g1868
g396
Ntp3597
Rp3598
(dp3599
g1872
g1864
sg1873
(lp3600
g1830
asg420
g1862
sbsS'IwGxDebug.h'
p3601
g394
(g1868
g396
Ntp3602
Rp3603
(dp3604
g1872
g1609
sg1873
g2007
sg420
g1624
sbsS'float.h'
p3605
g394
(g1868
g396
Ntp3606
Rp3607
(dp3608
g1872
g1880
sg1873
g1902
sg420
S'c:/marmalade/8.1/s3e/h/std/float.h'
p3609
sbsS'iomanip.h'
p3610
g394
(g1868
g396
Ntp3611
Rp3612
(dp3613
g1872
g1880
sg1873
g1881
sg420
S'c:/marmalade/8.1/s3e/h/std/c++/iomanip.h'
p3614
sbsS'ManagerInterface.h'
p3615
g394
(g1868
g396
Ntp3616
Rp3617
(dp3618
g1872
g1358
sg1873
g2841
sg420
g1398
sbsS'IwKeymap.h'
p3619
g394
(g1868
g396
Ntp3620
Rp3621
(dp3622
g1872
g1673
sg1873
g1909
sg420
g1680
sbsS'IwDebug.h'
p3623
g394
(g1868
g396
Ntp3624
Rp3625
(dp3626
g1872
g1673
sg1873
g1909
sg420
g1743
sbsS's3eIOSBackgroundAudio.h'
p3627
g394
(g1868
g396
Ntp3628
Rp3629
(dp3630
g1872
g1880
sg1873
g2089
sg420
S'c:/marmalade/8.1/s3e/h/ext/s3eIOSBackgroundAudio.h'
p3631
sbsS'IwGeomMenu.h'
p3632
g394
(g1868
g396
Ntp3633
Rp3634
(dp3635
g1872
g1509
sg1873
g1930
sg420
g1534
sbsS'GestureController.h'
p3636
g394
(g1868
g396
Ntp3637
Rp3638
(dp3639
g1872
g1358
sg1873
g2209
sg420
g1804
sbsS'IwDivTable.h'
p3640
g394
(g1868
g396
Ntp3641
Rp3642
(dp3643
g1872
g1673
sg1873
g1909
sg420
g1763
sbsS'ctype.h'
p3644
g394
(g1868
g396
Ntp3645
Rp3646
(dp3647
g1872
g1880
sg1873
g1902
sg420
S'c:/marmalade/8.1/s3e/h/std/ctype.h'
p3648
sbsS'IwGeomMat.h'
p3649
g394
(g1868
g396
Ntp3650
Rp3651
(dp3652
g1872
g1509
sg1873
g1930
sg420
g1570
sbsS'IwResGroup.h'
p3653
g394
(g1868
g396
Ntp3654
Rp3655
(dp3656
g1872
g1585
sg1873
g2438
sg420
g1591
sbsS'signal_1.h'
p3657
g394
(g1868
g396
Ntp3658
Rp3659
(dp3660
g1872
g1880
sg1873
g2020
sg420
S'c:/marmalade/8.1/s3e/h/std/sys/signal.h'
p3661
sbsS'functional'
p3662
g394
(g1868
g396
Ntp3663
Rp3664
(dp3665
g1872
g1880
sg1873
g1881
sg420
S'c:/marmalade/8.1/s3e/h/std/c++/functional'
p3666
sbsS'shm.h'
p3667
g394
(g1868
g396
Ntp3668
Rp3669
(dp3670
g1872
g1880
sg1873
g2020
sg420
S'c:/marmalade/8.1/s3e/h/std/sys/shm.h'
p3671
sbsS'IwManagedList.h'
p3672
g394
(g1868
g396
Ntp3673
Rp3674
(dp3675
g1872
g1673
sg1873
g1909
sg420
g1755
sbsS'Game.cpp'
p3676
g394
(g1868
g396
Ntp3677
Rp3678
(dp3679
g1872
g1358
sg1873
g3375
sg420
g1406
sbsS'prctl.h'
p3680
g394
(g1868
g396
Ntp3681
Rp3682
(dp3683
g1872
g1880
sg1873
g2020
sg420
S'c:/marmalade/8.1/s3e/h/std/sys/prctl.h'
p3684
sbsS'IwGxStream.h'
p3685
g394
(g1868
g396
Ntp3686
Rp3687
(dp3688
g1872
g1609
sg1873
g2007
sg420
g1651
sbsS'temp_defines_debug.h'
p3689
g394
(g1868
g396
Ntp3690
Rp3691
(dp3692
g1872
(lp3693
sg1873
(lp3694
g3190
asg420
S'c:/Users/conor/Documents/WorldGrid/Github/build_aliceengine2_vc14/temp_defines_debug.h'
p3695
sbsS'utility'
p3696
g394
(g1868
g396
Ntp3697
Rp3698
(dp3699
g1872
g1880
sg1873
g1881
sg420
S'c:/marmalade/8.1/s3e/h/std/c++/utility'
p3700
sbsS'IwGeomLegacy.h'
p3701
g394
(g1868
g396
Ntp3702
Rp3703
(dp3704
g1872
g1509
sg1873
g1930
sg420
g1526
sbsS'IwTPage.h'
p3705
g394
(g1868
g396
Ntp3706
Rp3707
(dp3708
g1872
g1609
sg1873
g2007
sg420
g1649
sbsS'IwResSerialise.h'
p3709
g394
(g1868
g396
Ntp3710
Rp3711
(dp3712
g1872
g1585
sg1873
g2438
sg420
g1601
sbsS's3eCrypto.h'
p3713
g394
(g1868
g396
Ntp3714
Rp3715
(dp3716
g1872
g1880
sg1873
g1896
sg420
S'c:/marmalade/8.1/s3e/h/s3eCrypto.h'
p3717
sbsS's3eKeyboard.h'
p3718
g394
(g1868
g396
Ntp3719
Rp3720
(dp3721
g1872
g1880
sg1873
g1896
sg420
S'c:/marmalade/8.1/s3e/h/s3eKeyboard.h'
p3722
sbsS'fcntl.h'
p3723
g394
(g1868
g396
Ntp3724
Rp3725
(dp3726
g1872
g1880
sg1873
g1902
sg420
S'c:/marmalade/8.1/s3e/h/std/fcntl.h'
p3727
sbsS'PhysicalControllerInterface.h'
p3728
g394
(g1868
g396
Ntp3729
Rp3730
(dp3731
g1872
g1358
sg1873
g2209
sg420
g1824
sbsS'Iw2DSceneGraphCore.h'
p3732
g394
(g1868
g396
Ntp3733
Rp3734
(dp3735
g1872
g1666
sg1873
g2969
sg420
g1664
sbsS'memory.h'
p3736
g394
(g1868
g396
Ntp3737
Rp3738
(dp3739
g1872
g1880
sg1873
g1902
sg420
S'c:/marmalade/8.1/s3e/h/std/memory.h'
p3740
sbsS'ParentTile.cpp'
p3741
g394
(g1868
g396
Ntp3742
Rp3743
(dp3744
g1872
g1358
sg1873
g2100
sg420
g1385
sbsS'pthread.h'
p3745
g394
(g1868
g396
Ntp3746
Rp3747
(dp3748
g1872
g1880
sg1873
g1902
sg420
S'c:/marmalade/8.1/s3e/h/std/pthread.h'
p3749
sbsS'IwGeomIntersect.h'
p3750
g394
(g1868
g396
Ntp3751
Rp3752
(dp3753
g1872
g1509
sg1873
g1930
sg420
g1536
sbsS'IwTextParserITX.h'
p3754
g394
(g1868
g396
Ntp3755
Rp3756
(dp3757
g1872
g1673
sg1873
g1909
sg420
g1739
sbsS'IwClip.inl'
p3758
g394
(g1868
g396
Ntp3759
Rp3760
(dp3761
g1872
g1609
sg1873
g2007
sg420
g1622
sbsS'Iw2DSceneGraph.cpp'
p3762
g394
(g1868
g396
Ntp3763
Rp3764
(dp3765
g1872
g1451
sg1873
g2134
sg420
g1449
sbsS'ostream.h'
p3766
g394
(g1868
g396
Ntp3767
Rp3768
(dp3769
g1872
g1880
sg1873
g1881
sg420
S'c:/marmalade/8.1/s3e/h/std/c++/ostream.h'
p3770
sbsS'stl_user_config.h'
p3771
g394
(g1868
g396
Ntp3772
Rp3773
(dp3774
g1872
g1880
sg1873
g1881
sg420
S'c:/marmalade/8.1/s3e/h/std/c++/stl_user_config.h'
p3775
sbsS'iwgx.mkf'
p3776
g394
(g1868
g396
Ntp3777
Rp3778
(dp3779
g1872
g1636
sg1873
g2007
sg420
g1634
sbsS'TileInterface.h'
p3780
g394
(g1868
g396
Ntp3781
Rp3782
(dp3783
g1872
g1358
sg1873
g2100
sg420
g1381
sbsS'IwProfileMenu.h'
p3784
g394
(g1868
g396
Ntp3785
Rp3786
(dp3787
g1872
g1673
sg1873
g1909
sg420
g1757
sbsS'MarmaladeVersion.h'
p3788
g394
(g1868
g396
Ntp3789
Rp3790
(dp3791
g1872
g1880
sg1873
g1896
sg420
S'c:/marmalade/8.1/s3e/h/MarmaladeVersion.h'
p3792
sbsS'gl3platform.h'
p3793
g394
(g1868
g396
Ntp3794
Rp3795
(dp3796
g1872
g1880
sg1873
g2186
sg420
S'c:/marmalade/8.1/s3e/h/GLES3/gl3platform.h'
p3797
sbsS'ios.h'
p3798
g394
(g1868
g396
Ntp3799
Rp3800
(dp3801
g1872
g1880
sg1873
g1881
sg420
S'c:/marmalade/8.1/s3e/h/std/c++/ios.h'
p3802
sbsS'IwImageHelper.h'
p3803
g394
(g1868
g396
Ntp3804
Rp3805
(dp3806
g1872
g1673
sg1873
g1909
sg420
g1733
sbsS'hash_set'
p3807
g394
(g1868
g396
Ntp3808
Rp3809
(dp3810
g1872
g1880
sg1873
g1881
sg420
S'c:/marmalade/8.1/s3e/h/std/c++/hash_set'
p3811
sbsS'IwGeomFQuat.h'
p3812
g394
(g1868
g396
Ntp3813
Rp3814
(dp3815
g1872
g1509
sg1873
g1930
sg420
g1560
sbsS'jmorecfg.h'
p3816
g394
(g1868
g396
Ntp3817
Rp3818
(dp3819
g1872
g1835
sg1873
g1960
sg420
g1856
sbsS'eglplatform.h'
p3820
g394
(g1868
g396
Ntp3821
Rp3822
(dp3823
g1872
g1880
sg1873
g2223
sg420
S'c:/marmalade/8.1/s3e/h/EGL/eglplatform.h'
p3824
sbsS'cmath'
p3825
g394
(g1868
g396
Ntp3826
Rp3827
(dp3828
g1872
g1880
sg1873
g1881
sg420
S'c:/marmalade/8.1/s3e/h/std/c++/cmath'
p3829
sbsS'math_gcc.h'
p3830
g394
(g1868
g396
Ntp3831
Rp3832
(dp3833
g1872
g1880
sg1873
g1902
sg420
S'c:/marmalade/8.1/s3e/h/std/math_gcc.h'
p3834
sbsS's3eMemory.h'
p3835
g394
(g1868
g396
Ntp3836
Rp3837
(dp3838
g1872
g1880
sg1873
g1896
sg420
S'c:/marmalade/8.1/s3e/h/s3eMemory.h'
p3839
sbsS'RenderableInterface.h'
p3840
g394
(g1868
g396
Ntp3841
Rp3842
(dp3843
g1872
g1358
sg1873
g2100
sg420
g1379
sbsS'strings.h'
p3844
g394
(g1868
g396
Ntp3845
Rp3846
(dp3847
g1872
g1880
sg1873
g1902
sg420
S'c:/marmalade/8.1/s3e/h/std/strings.h'
p3848
sbsS's3eFile.h'
p3849
g394
(g1868
g396
Ntp3850
Rp3851
(dp3852
g1872
g1880
sg1873
g1896
sg420
S'c:/marmalade/8.1/s3e/h/s3eFile.h'
p3853
sbsS'GestureController.cpp'
p3854
g394
(g1868
g396
Ntp3855
Rp3856
(dp3857
g1872
g1358
sg1873
g2209
sg420
g1828
sbsS'IwGxTypes.h'
p3858
g394
(g1868
g396
Ntp3859
Rp3860
(dp3861
g1872
g1609
sg1873
g2007
sg420
g1643
sbsS'cerrno'
p3862
g394
(g1868
g396
Ntp3863
Rp3864
(dp3865
g1872
g1880
sg1873
g1881
sg420
S'c:/marmalade/8.1/s3e/h/std/c++/cerrno'
p3866
sbsS'OnScreenController.h'
p3867
g394
(g1868
g396
Ntp3868
Rp3869
(dp3870
g1872
g1358
sg1873
g2209
sg420
g1806
sbsS'resource.h'
p3871
g394
(g1868
g396
Ntp3872
Rp3873
(dp3874
g1872
g1880
sg1873
g2020
sg420
S'c:/marmalade/8.1/s3e/h/std/sys/resource.h'
p3875
sbsS'clocale'
p3876
g394
(g1868
g396
Ntp3877
Rp3878
(dp3879
g1872
g1880
sg1873
g1881
sg420
S'c:/marmalade/8.1/s3e/h/std/c++/clocale'
p3880
sbsS'pvrtextool.mkf'
p3881
g394
(g1868
g396
Ntp3882
Rp3883
(dp3884
g1872
g1437
sg1873
g2491
sg420
g1435
sbsS'csetjmp'
p3885
g394
(g1868
g396
Ntp3886
Rp3887
(dp3888
g1872
g1880
sg1873
g1881
sg420
S'c:/marmalade/8.1/s3e/h/std/c++/csetjmp'
p3889
sbsS'netdb.h'
p3890
g394
(g1868
g396
Ntp3891
Rp3892
(dp3893
g1872
g1880
sg1873
g1902
sg420
S'c:/marmalade/8.1/s3e/h/std/netdb.h'
p3894
sbsS's3eAndroidJNI.h'
p3895
g394
(g1868
g396
Ntp3896
Rp3897
(dp3898
g1872
g1880
sg1873
g2089
sg420
S'c:/marmalade/8.1/s3e/h/ext/s3eAndroidJNI.h'
p3899
sbsS'stdexcept'
p3900
g394
(g1868
g396
Ntp3901
Rp3902
(dp3903
g1872
g1880
sg1873
g1881
sg420
S'c:/marmalade/8.1/s3e/h/std/c++/stdexcept'
p3904
sbsS'math.h'
p3905
g394
(g1868
g396
Ntp3906
Rp3907
(dp3908
g1872
g1880
sg1873
g1902
sg420
S'c:/marmalade/8.1/s3e/h/std/math.h'
p3909
sbsS'stdbool.h'
p3910
g394
(g1868
g396
Ntp3911
Rp3912
(dp3913
g1872
g1880
sg1873
g1902
sg420
S'c:/marmalade/8.1/s3e/h/std/stdbool.h'
p3914
sbsS'SimpleTile.cpp'
p3915
g394
(g1868
g396
Ntp3916
Rp3917
(dp3918
g1872
g1358
sg1873
g2100
sg420
g1365
sbsS'uio.h'
p3919
g394
(g1868
g396
Ntp3920
Rp3921
(dp3922
g1872
g1880
sg1873
g2020
sg420
S'c:/marmalade/8.1/s3e/h/std/sys/uio.h'
p3923
sbsS'IwUncopyable.h'
p3924
g394
(g1868
g396
Ntp3925
Rp3926
(dp3927
g1872
g1673
sg1873
g1909
sg420
g1759
sbssS'juice_build_type'
p3928
g4
sS'tests'
p3929
(lp3930
sS'project_name'
p3931
g402
sS'root_file'
p3932
g194
sS'current_root'
p3933
S'c:/Users/conor/Documents/WorldGrid/Github'
p3934
sS'dependencies'
p3935
(lp3936
sS'include_paths'
p3937
(lp3938
S'c:/marmalade/8.1/extensions/s3eamazonads/h'
p3939
aS'c:/marmalade/8.1/modules/iwutil/h'
p3940
aS'c:/marmalade/8.1/modules/third_party/libjpeg/h'
p3941
aS'c:/marmalade/8.1/modules/third_party/zlib/h'
p3942
aS'c:/marmalade/8.1/modules/third_party/libpng/h'
p3943
aS'c:/marmalade/8.1/modules/iw2dscenegraphcore/h'
p3944
aS'c:/marmalade/8.1/modules/iw2dscenegraph/h'
p3945
aS'c:/marmalade/8.1/modules/iw2d/h'
p3946
aS'c:/marmalade/8.1/modules/iwgx/h'
p3947
aS'c:/marmalade/8.1/modules/iwgl/h'
p3948
aS'c:/marmalade/8.1/modules/iwgeom/h'
p3949
aS'c:/marmalade/8.1/modules/iwresmanager/h'
p3950
aS'c:/marmalade/8.1/extensions/pvrtextool/h'
p3951
aS'c:/marmalade/8.1/modules/iwgxfont/h'
p3952
aS'c:/marmalade/8.1/modules/third_party/tiniconv/source'
p3953
aS'c:/marmalade/8.1/modules/iwtween/h'
p3954
aS'c:/marmalade/8.1/s3e/h'
p3955
aS'c:/marmalade/8.1/s3e/h/ext'
p3956
aS'c:/marmalade/8.1/s3e/h/std'
p3957
aS'c:/marmalade/8.1/s3e/h/std/c++'
p3958
aS'c:/marmalade/8.1/s3e/h/ext_legacy'
p3959
aS'c:/marmalade/8.1/s3e/h/legacy'
p3960
asS'weak_frameworks'
p3961
(lp3962
sS'extprojects'
p3963
(dp3964
sg1318
(dp3965
g719
(lp3966
(g148
S'.'
p3967
I0
tp3968
assS'macro_types'
p3969
(dp3970
g648
I0
sg650
I1
sg651
I0
sg652
I0
sg653
I0
sg654
I0
sg656
I0
sg657
I0
sg658
I0
sg659
I0
sg660
I0
sg661
I0
sg663
I0
sg664
I0
sg665
I0
sg666
I0
sg667
I0
sg668
I0
sg669
I0
sg670
I0
sg671
I0
sg673
I0
sg674
I0
sg675
I0
sg676
I0
sg677
I0
sg678
I0
sg679
I0
sg680
I1
sg681
I0
sg682
I0
sg683
I0
sg684
I0
sg685
I01
sg686
I1
sg687
I0
sg688
I0
sg689
I0
sg690
I0
sg691
I0
sg692
I0
sg693
I0
ssS'commands'
p3971
(lp3972
sg780
(g1320
S'VC14'
p3973
S'X86ARMAARCH64'
p3974
tp3975
sS'build_libs'
p3976
(dp3977
sg784
g0
sS'frameworks'
p3978
(lp3979
sS'environ'
p3980
(dp3981
S'NACL_ROOT'
p3982
S'c:\\marmalade\\8.1/tools/gcc/x86_64/nacl_windows'
p3983
ssS'target_name_debug'
p3984
g402
sS'builders'
p3985
(dp3986
g719
(dp3987
S'.S'
p3988
(dp3989
S'gcc_aarch64'
p3990
(lp3991
S'.obj'
p3992
aS'echo AARCH64 Assembling(GCC) ${SOURCE}...'
p3993
aS'c:/marmalade/8.1/s3e\\gcc\\win32\\aarch64\\bin\\aarch64-none-elf-gcc -c -o ${TARGET} ${SOURCE}'
p3994
asS'rvct'
p3995
(lp3996
g3992
aS'echo ARM Assembling(RVCT) ${SOURCE}...'
p3997
aS'c:/marmalade/8.1/s3e\\rvct\\bin\\armasm -o ${TARGET} ${SOURCE}'
p3998
asg523
(lp3999
g3992
aS'echo ARM Assembling(GCC) ${SOURCE}...'
p4000
aS'c:/marmalade/8.1/s3e\\gcc\\win32\\arm\\bin\\arm-none-eabi-gcc -c -o ${TARGET} ${SOURCE}'
p4001
asS'ppu'
p4002
(lp4003
S'.a'
p4004
aS'echo PPU Assembling(SNC) ${SOURCE}...'
p4005
aS'c:/marmalade/8.1/s3e\\rvct\\bin\\armasm -o ${TARGET} ${SOURCE}'
p4006
assS'.s'
p4007
g3989
sS'.vp'
p4008
(lp4009
NaS'"C:/Marmalade/8.1/s3e/python/python.exe" "c:/marmalade/8.1/modules/iwgx/tools/compile_shaders.py" ${SOURCE}'
p4010
asssS'extproject_names'
p4011
(lp4012
sbtp4013
.